---
triple:          'arm64-apple-darwin'
binary-path:     'build/debug/wplay'
relocations:
  - { offset: 0x19, size: 0x8, addend: 0x0, symName: __ZnwmPv, symObjAddr: 0x0, symBinAddr: 0x100000920, symSize: 0x18 }
  - { offset: 0x23E31, size: 0x8, addend: 0x0, symName: __ZNSt15_Sp_counted_ptrIPN6engine6ButtonELN9__gnu_cxx12_Lock_policyE2EE14_M_get_deleterERKSt9type_info, symObjAddr: 0x2294, symBinAddr: 0x100002BB4, symSize: 0x18 }
  - { offset: 0x23E64, size: 0x8, addend: 0x0, symName: __ZNSt15_Sp_counted_ptrIPN6engine6ButtonELN9__gnu_cxx12_Lock_policyE2EE10_M_destroyEv, symObjAddr: 0x226C, symBinAddr: 0x100002B8C, symSize: 0x28 }
  - { offset: 0x23E8E, size: 0x8, addend: 0x0, symName: __ZNSt15_Sp_counted_ptrIPN6engine6ButtonELN9__gnu_cxx12_Lock_policyE2EE10_M_disposeEv, symObjAddr: 0x2234, symBinAddr: 0x100002B54, symSize: 0x38 }
  - { offset: 0x23EE0, size: 0x8, addend: 0x0, symName: __ZNSt15_Sp_counted_ptrIPN6engine6ButtonELN9__gnu_cxx12_Lock_policyE2EED0Ev, symObjAddr: 0x220C, symBinAddr: 0x100002B2C, symSize: 0x28 }
  - { offset: 0x23F0A, size: 0x8, addend: 0x0, symName: __ZNSt15_Sp_counted_ptrIPN6engine6ButtonELN9__gnu_cxx12_Lock_policyE2EED1Ev, symObjAddr: 0x21D8, symBinAddr: 0x100002AF8, symSize: 0x34 }
  - { offset: 0x23F46, size: 0x8, addend: 0x0, symName: __ZNSt15__new_allocatorIcE8allocateEmPKv, symObjAddr: 0x2174, symBinAddr: 0x100002A94, symSize: 0x64 }
  - { offset: 0x23FD6, size: 0x8, addend: 0x0, symName: __ZNSt16_Sp_counted_baseILN9__gnu_cxx12_Lock_policyE2EEC2Ev, symObjAddr: 0x2134, symBinAddr: 0x100002A54, symSize: 0x40 }
  - { offset: 0x2401B, size: 0x8, addend: 0x0, symName: __ZSt11__addressofIKcEPT_RS1_, symObjAddr: 0x2120, symBinAddr: 0x100002A40, symSize: 0x14 }
  - { offset: 0x24051, size: 0x8, addend: 0x0, symName: __ZNSt15__new_allocatorIcE10deallocateEPcm, symObjAddr: 0x20F8, symBinAddr: 0x100002A18, symSize: 0x28 }
  - { offset: 0x240C3, size: 0x8, addend: 0x0, symName: __ZNSt15_Sp_counted_ptrIPN6engine6ButtonELN9__gnu_cxx12_Lock_policyE2EEC1ES2_, symObjAddr: 0x20B4, symBinAddr: 0x1000029D4, symSize: 0x44 }
  - { offset: 0x24128, size: 0x8, addend: 0x0, symName: __ZSt9addressofIKcEPT_RS1_, symObjAddr: 0x2098, symBinAddr: 0x1000029B8, symSize: 0x1C }
  - { offset: 0x2418E, size: 0x8, addend: 0x0, symName: __ZNSt16_Sp_counted_baseILN9__gnu_cxx12_Lock_policyE2EE15_M_add_ref_copyEv, symObjAddr: 0x2000, symBinAddr: 0x100002920, symSize: 0x98 }
  - { offset: 0x24286, size: 0x8, addend: 0x0, symName: __ZNSt14__shared_countILN9__gnu_cxx12_Lock_policyE2EEC1IPN6engine6ButtonEEET_, symObjAddr: 0x1F60, symBinAddr: 0x100002880, symSize: 0xA0 }
  - { offset: 0x242E5, size: 0x8, addend: 0x0, symName: __ZN6engine6ButtonD0Ev, symObjAddr: 0x1F38, symBinAddr: 0x100002858, symSize: 0x28 }
  - { offset: 0x2430F, size: 0x8, addend: 0x0, symName: __ZN6engine6ButtonD1Ev, symObjAddr: 0x1F08, symBinAddr: 0x100002828, symSize: 0x30 }
  - { offset: 0x24339, size: 0x8, addend: 0x0, symName: __ZNSt7__cxx1112basic_stringIcSt11char_traitsIcESaIcEE9_M_mutateEmmPKcm, symObjAddr: 0x1DB0, symBinAddr: 0x1000026D0, symSize: 0x158 }
  - { offset: 0x24407, size: 0x8, addend: 0x0, symName: __ZNSt7__cxx1112basic_stringIcSt11char_traitsIcESaIcEE11_S_allocateERS3_m, symObjAddr: 0x1D14, symBinAddr: 0x100002634, symSize: 0x9C }
  - { offset: 0x244C6, size: 0x8, addend: 0x0, symName: __ZNKSt7__cxx1112basic_stringIcSt11char_traitsIcESaIcEE8max_sizeEv, symObjAddr: 0x1CE8, symBinAddr: 0x100002608, symSize: 0x2C }
  - { offset: 0x24510, size: 0x8, addend: 0x0, symName: __ZNSt19__ptr_traits_ptr_toIPKcS0_Lb0EE10pointer_toERS0_, symObjAddr: 0x1CCC, symBinAddr: 0x1000025EC, symSize: 0x1C }
  - { offset: 0x24597, size: 0x8, addend: 0x0, symName: __ZNSt14__shared_countILN9__gnu_cxx12_Lock_policyE2EEC1ERKS2_, symObjAddr: 0x1C84, symBinAddr: 0x1000025A4, symSize: 0x48 }
  - { offset: 0x245C6, size: 0x8, addend: 0x0, symName: __ZNSt12__shared_ptrIN6engine6ButtonELN9__gnu_cxx12_Lock_policyE2EE31_M_enable_shared_from_this_withIS1_S1_EENSt9enable_ifIXntsrNS4_15__has_esft_baseIT0_vEE5valueEvE4typeEPT_, symObjAddr: 0x1C6C, symBinAddr: 0x10000258C, symSize: 0x18 }
  - { offset: 0x24641, size: 0x8, addend: 0x0, symName: __ZNSt14__shared_countILN9__gnu_cxx12_Lock_policyE2EEC1IPN6engine6ButtonEEET_St17integral_constantIbLb0EE, symObjAddr: 0x1C40, symBinAddr: 0x100002560, symSize: 0x2C }
  - { offset: 0x24686, size: 0x8, addend: 0x0, symName: __ZNSt7__cxx1112basic_stringIcSt11char_traitsIcESaIcEE9_M_appendEPKcm, symObjAddr: 0x1B78, symBinAddr: 0x100002498, symSize: 0xC8 }
  - { offset: 0x246E3, size: 0x8, addend: 0x0, symName: __ZNKSt7__cxx1112basic_stringIcSt11char_traitsIcESaIcEE15_M_check_lengthEmmPKc, symObjAddr: 0x1B04, symBinAddr: 0x100002424, symSize: 0x74 }
  - { offset: 0x2473C, size: 0x8, addend: 0x0, symName: __ZNSt7__cxx1112basic_stringIcSt11char_traitsIcESaIcEE7_S_copyEPcPKcm, symObjAddr: 0x1AB8, symBinAddr: 0x1000023D8, symSize: 0x4C }
  - { offset: 0x24788, size: 0x8, addend: 0x0, symName: __ZNSt7__cxx1112basic_stringIcSt11char_traitsIcESaIcEE13_S_copy_charsEPcS5_S5_, symObjAddr: 0x1A7C, symBinAddr: 0x10000239C, symSize: 0x3C }
  - { offset: 0x2481C, size: 0x8, addend: 0x0, symName: __ZNSt7__cxx1112basic_stringIcSt11char_traitsIcESaIcEE9_M_createERmm, symObjAddr: 0x1988, symBinAddr: 0x1000022A8, symSize: 0xF4 }
  - { offset: 0x2487C, size: 0x8, addend: 0x0, symName: __ZNKSt7__cxx1112basic_stringIcSt11char_traitsIcESaIcEE13_M_local_dataEv, symObjAddr: 0x1968, symBinAddr: 0x100002288, symSize: 0x20 }
  - { offset: 0x248A6, size: 0x8, addend: 0x0, symName: __ZNSt7__cxx1112basic_stringIcSt11char_traitsIcESaIcEE10_M_destroyEm, symObjAddr: 0x18D0, symBinAddr: 0x1000021F0, symSize: 0x98 }
  - { offset: 0x24997, size: 0x8, addend: 0x0, symName: __ZNSt12__shared_ptrIN6engine10UI_ElementELN9__gnu_cxx12_Lock_policyE2EEC2INS0_6ButtonEvEERKS_IT_LS3_2EE, symObjAddr: 0x1888, symBinAddr: 0x1000021A8, symSize: 0x48 }
  - { offset: 0x24A00, size: 0x8, addend: 0x0, symName: __ZNSt12__shared_ptrIN6engine6ButtonELN9__gnu_cxx12_Lock_policyE2EEC2IS1_vEEPT_, symObjAddr: 0x1844, symBinAddr: 0x100002164, symSize: 0x44 }
  - { offset: 0x24A38, size: 0x8, addend: 0x0, symName: __ZNSt7__cxx1112basic_stringIcSt11char_traitsIcESaIcEE6appendEPKcm, symObjAddr: 0x1800, symBinAddr: 0x100002120, symSize: 0x44 }
  - { offset: 0x24A88, size: 0x8, addend: 0x0, symName: __ZNSt7__cxx1112basic_stringIcSt11char_traitsIcESaIcEE7reserveEm, symObjAddr: 0x1758, symBinAddr: 0x100002078, symSize: 0xA8 }
  - { offset: 0x24AE5, size: 0x8, addend: 0x0, symName: __ZNKSt7__cxx1112basic_stringIcSt11char_traitsIcESaIcEE8capacityEv, symObjAddr: 0x1720, symBinAddr: 0x100002040, symSize: 0x38 }
  - { offset: 0x24B37, size: 0x8, addend: 0x0, symName: __ZNSt7__cxx1112basic_stringIcSt11char_traitsIcESaIcEEC1ERKS3_, symObjAddr: 0x1688, symBinAddr: 0x100001FA8, symSize: 0x98 }
  - { offset: 0x24BAA, size: 0x8, addend: 0x0, symName: __ZNSt7__cxx1112basic_stringIcSt11char_traitsIcESaIcEE12_M_constructIPcEEvT_S7_St20forward_iterator_tag, symObjAddr: 0x1568, symBinAddr: 0x100001E88, symSize: 0x120 }
  - { offset: 0x24CB3, size: 0x8, addend: 0x0, symName: __ZZNSt7__cxx1112basic_stringIcSt11char_traitsIcESaIcEE12_M_constructIPcEEvT_S7_St20forward_iterator_tagEN6_GuardC1EPS4_, symObjAddr: 0x1510, symBinAddr: 0x100001E30, symSize: 0x24 }
  - { offset: 0x24CE6, size: 0x8, addend: 0x0, symName: __ZZNSt7__cxx1112basic_stringIcSt11char_traitsIcESaIcEE12_M_constructIPcEEvT_S7_St20forward_iterator_tagEN6_GuardD1Ev, symObjAddr: 0x1534, symBinAddr: 0x100001E54, symSize: 0x34 }
  - { offset: 0x24DF8, size: 0x8, addend: 0x0, symName: __ZNKSt7__cxx1112basic_stringIcSt11char_traitsIcESaIcEE16_M_get_allocatorEv, symObjAddr: 0x14FC, symBinAddr: 0x100001E1C, symSize: 0x14 }
  - { offset: 0x24E22, size: 0x8, addend: 0x0, symName: __ZNSt16_Sp_counted_baseILN9__gnu_cxx12_Lock_policyE2EE19_M_release_last_useEv, symObjAddr: 0x140C, symBinAddr: 0x100001D2C, symSize: 0xF0 }
  - { offset: 0x24F16, size: 0x8, addend: 0x0, symName: __ZNSt16_Sp_counted_baseILN9__gnu_cxx12_Lock_policyE2EED2Ev, symObjAddr: 0x13E4, symBinAddr: 0x100001D04, symSize: 0x28 }
  - { offset: 0x24F70, size: 0x8, addend: 0x0, symName: __ZNSt7__cxx1112basic_stringIcSt11char_traitsIcESaIcEE12_Alloc_hiderC1EPcRKS3_, symObjAddr: 0x1394, symBinAddr: 0x100001CB4, symSize: 0x50 }
  - { offset: 0x25000, size: 0x8, addend: 0x0, symName: __ZNSt7__cxx1112basic_stringIcSt11char_traitsIcESaIcEE11_M_capacityEm, symObjAddr: 0x1370, symBinAddr: 0x100001C90, symSize: 0x24 }
  - { offset: 0x2503A, size: 0x8, addend: 0x0, symName: __ZNSt7__cxx1112basic_stringIcSt11char_traitsIcESaIcEE7_M_dataEPc, symObjAddr: 0x134C, symBinAddr: 0x100001C6C, symSize: 0x24 }
  - { offset: 0x25074, size: 0x8, addend: 0x0, symName: __ZNKSt7__cxx1112basic_stringIcSt11char_traitsIcESaIcEE6lengthEv, symObjAddr: 0x1334, symBinAddr: 0x100001C54, symSize: 0x18 }
  - { offset: 0x2509E, size: 0x8, addend: 0x0, symName: __ZNKSt7__cxx1112basic_stringIcSt11char_traitsIcESaIcEE11_M_is_localEv, symObjAddr: 0x12CC, symBinAddr: 0x100001BEC, symSize: 0x68 }
  - { offset: 0x250C8, size: 0x8, addend: 0x0, symName: __ZNSt7__cxx1112basic_stringIcSt11char_traitsIcESaIcEE16_M_get_allocatorEv, symObjAddr: 0x12B8, symBinAddr: 0x100001BD8, symSize: 0x14 }
  - { offset: 0x250F2, size: 0x8, addend: 0x0, symName: __ZNSt7__cxx1112basic_stringIcSt11char_traitsIcESaIcEE10_M_disposeEv, symObjAddr: 0x1270, symBinAddr: 0x100001B90, symSize: 0x48 }
  - { offset: 0x2511C, size: 0x8, addend: 0x0, symName: __ZNSt7__cxx1112basic_stringIcSt11char_traitsIcESaIcEE9_M_lengthEm, symObjAddr: 0x124C, symBinAddr: 0x100001B6C, symSize: 0x24 }
  - { offset: 0x25152, size: 0x8, addend: 0x0, symName: __ZN9__gnu_cxx11char_traitsIcE2eqERKcS3_, symObjAddr: 0x121C, symBinAddr: 0x100001B3C, symSize: 0x30 }
  - { offset: 0x25192, size: 0x8, addend: 0x0, symName: __ZSt7forwardIRKcEOT_RNSt16remove_referenceIS2_E4typeE, symObjAddr: 0x1208, symBinAddr: 0x100001B28, symSize: 0x14 }
  - { offset: 0x251F9, size: 0x8, addend: 0x0, symName: __ZNSt10shared_ptrIN6engine10UI_ElementEEC1INS0_6ButtonEvEERKS_IT_E, symObjAddr: 0x11E0, symBinAddr: 0x100001B00, symSize: 0x28 }
  - { offset: 0x25261, size: 0x8, addend: 0x0, symName: __ZNSt10shared_ptrIN6engine6ButtonEEC1IS1_vEEPT_, symObjAddr: 0x11B8, symBinAddr: 0x100001AD8, symSize: 0x28 }
  - { offset: 0x2529B, size: 0x8, addend: 0x0, symName: __ZSt12__str_concatINSt7__cxx1112basic_stringIcSt11char_traitsIcESaIcEEEET_PKNS6_10value_typeENS6_9size_typeES9_SA_RKNS6_14allocator_typeE, symObjAddr: 0x10E0, symBinAddr: 0x100001A00, symSize: 0xD8 }
  - { offset: 0x253ED, size: 0x8, addend: 0x0, symName: __ZNKSt7__cxx1112basic_stringIcSt11char_traitsIcESaIcEE13get_allocatorEv, symObjAddr: 0x1090, symBinAddr: 0x1000019B0, symSize: 0x50 }
  - { offset: 0x25494, size: 0x8, addend: 0x0, symName: __ZNSt14__shared_countILN9__gnu_cxx12_Lock_policyE2EED1Ev, symObjAddr: 0x105C, symBinAddr: 0x10000197C, symSize: 0x34 }
  - { offset: 0x254E2, size: 0x8, addend: 0x0, symName: __ZNSt7__cxx1112basic_stringIcSt11char_traitsIcESaIcEEC1ERKS4_, symObjAddr: 0xF78, symBinAddr: 0x100001898, symSize: 0xE4 }
  - { offset: 0x255D4, size: 0x8, addend: 0x0, symName: __ZNSt16_Sp_counted_baseILN9__gnu_cxx12_Lock_policyE2EE24_M_release_last_use_coldEv, symObjAddr: 0xF58, symBinAddr: 0x100001878, symSize: 0x20 }
  - { offset: 0x255FE, size: 0x8, addend: 0x0, symName: __ZNSt16_Sp_counted_baseILN9__gnu_cxx12_Lock_policyE2EE10_M_destroyEv, symObjAddr: 0xF24, symBinAddr: 0x100001844, symSize: 0x34 }
  - { offset: 0x2564C, size: 0x8, addend: 0x0, symName: __ZNSt7__cxx1112basic_stringIcSt11char_traitsIcESaIcEED1Ev, symObjAddr: 0xEFC, symBinAddr: 0x10000181C, symSize: 0x28 }
  - { offset: 0x25672, size: 0x8, addend: 0x0, symName: __ZNSt7__cxx1112basic_stringIcSt11char_traitsIcESaIcEE13_M_set_lengthEm, symObjAddr: 0xEB4, symBinAddr: 0x1000017D4, symSize: 0x48 }
  - { offset: 0x256A9, size: 0x8, addend: 0x0, symName: __ZN9__gnu_cxx11char_traitsIcE4copyEPcPKcm, symObjAddr: 0xE00, symBinAddr: 0x100001720, symSize: 0xB4 }
  - { offset: 0x25730, size: 0x8, addend: 0x0, symName: __ZN9__gnu_cxx11char_traitsIcE6lengthEPKc, symObjAddr: 0xDA8, symBinAddr: 0x1000016C8, symSize: 0x58 }
  - { offset: 0x25769, size: 0x8, addend: 0x0, symName: __ZSt12construct_atIcJRKcEEDTgsnwcvPvLi0E_T_pispcl7declvalIT0_EEEEPS3_DpOS4_, symObjAddr: 0xD44, symBinAddr: 0x100001664, symSize: 0x64 }
  - { offset: 0x257BB, size: 0x8, addend: 0x0, symName: __ZN6engine6Button11on_mouse_upERK9SDL_Event, symObjAddr: 0xBC8, symBinAddr: 0x1000014E8, symSize: 0x17C }
  - { offset: 0x25833, size: 0x8, addend: 0x0, symName: __ZN6engine6Button13on_mouse_downERK9SDL_Event, symObjAddr: 0xAB8, symBinAddr: 0x1000013D8, symSize: 0x110 }
  - { offset: 0x258A9, size: 0x8, addend: 0x0, symName: __ZNK6engine6Button4drawEv, symObjAddr: 0x964, symBinAddr: 0x100001284, symSize: 0x154 }
  - { offset: 0x259EA, size: 0x8, addend: 0x0, symName: __ZN6engine6ButtonC1EffffNSt7__cxx1112basic_stringIcSt11char_traitsIcESaIcEEEPFvS6_ES6_, symObjAddr: 0x85C, symBinAddr: 0x10000117C, symSize: 0x108 }
  - { offset: 0x25A5D, size: 0x8, addend: 0x0, symName: __ZN6engine6ButtonC2EffffNSt7__cxx1112basic_stringIcSt11char_traitsIcESaIcEEEPFvS6_ES6_, symObjAddr: 0x754, symBinAddr: 0x100001074, symSize: 0x108 }
  - { offset: 0x25AC8, size: 0x8, addend: 0x0, symName: __ZN6engine6Button4makeEffffNSt7__cxx1112basic_stringIcSt11char_traitsIcESaIcEEEPFvS6_ES6_, symObjAddr: 0x5C0, symBinAddr: 0x100000EE0, symSize: 0x194 }
  - { offset: 0x25BA6, size: 0x8, addend: 0x0, symName: __ZNSt10shared_ptrIN6engine10UI_ElementEED1Ev, symObjAddr: 0x5A0, symBinAddr: 0x100000EC0, symSize: 0x20 }
  - { offset: 0x25BF0, size: 0x8, addend: 0x0, symName: __ZNSt12__shared_ptrIN6engine10UI_ElementELN9__gnu_cxx12_Lock_policyE2EED2Ev, symObjAddr: 0x57C, symBinAddr: 0x100000E9C, symSize: 0x24 }
  - { offset: 0x25C3D, size: 0x8, addend: 0x0, symName: __ZNSt10shared_ptrIN6engine6ButtonEED1Ev, symObjAddr: 0x55C, symBinAddr: 0x100000E7C, symSize: 0x20 }
  - { offset: 0x25C87, size: 0x8, addend: 0x0, symName: __ZNSt12__shared_ptrIN6engine6ButtonELN9__gnu_cxx12_Lock_policyE2EED2Ev, symObjAddr: 0x538, symBinAddr: 0x100000E58, symSize: 0x24 }
  - { offset: 0x25CAD, size: 0x8, addend: 0x0, symName: __ZNKSt7__cxx1112basic_stringIcSt11char_traitsIcESaIcEE7_M_dataEv, symObjAddr: 0x520, symBinAddr: 0x100000E40, symSize: 0x18 }
  - { offset: 0x25CD7, size: 0x8, addend: 0x0, symName: __ZNKSt7__cxx1112basic_stringIcSt11char_traitsIcESaIcEE5c_strEv, symObjAddr: 0x504, symBinAddr: 0x100000E24, symSize: 0x1C }
  - { offset: 0x25CFD, size: 0x8, addend: 0x0, symName: __ZStplIcSt11char_traitsIcESaIcEENSt7__cxx1112basic_stringIT_T0_T1_EEPKS5_RKS8_, symObjAddr: 0x478, symBinAddr: 0x100000D98, symSize: 0x8C }
  - { offset: 0x25D78, size: 0x8, addend: 0x0, symName: __ZNK6engine6Engine12get_rendererEv, symObjAddr: 0x460, symBinAddr: 0x100000D80, symSize: 0x18 }
  - { offset: 0x25DA2, size: 0x8, addend: 0x0, symName: __ZNK6engine10UI_Element9get_colorEv, symObjAddr: 0x448, symBinAddr: 0x100000D68, symSize: 0x18 }
  - { offset: 0x25DCC, size: 0x8, addend: 0x0, symName: __ZN6engine9Component9on_key_upERK9SDL_Event, symObjAddr: 0x430, symBinAddr: 0x100000D50, symSize: 0x18 }
  - { offset: 0x25E06, size: 0x8, addend: 0x0, symName: __ZN6engine9Component11on_key_downERK9SDL_Event, symObjAddr: 0x418, symBinAddr: 0x100000D38, symSize: 0x18 }
  - { offset: 0x25E40, size: 0x8, addend: 0x0, symName: __ZNK6engine9Component6get_idB5cxx11Ev, symObjAddr: 0x3E0, symBinAddr: 0x100000D00, symSize: 0x38 }
  - { offset: 0x25E6A, size: 0x8, addend: 0x0, symName: __ZNK6engine9Component9get_frectEv, symObjAddr: 0x3C8, symBinAddr: 0x100000CE8, symSize: 0x18 }
  - { offset: 0x25E94, size: 0x8, addend: 0x0, symName: __ZNSt16_Sp_counted_baseILN9__gnu_cxx12_Lock_policyE2EE10_M_releaseEv, symObjAddr: 0x254, symBinAddr: 0x100000B74, symSize: 0x174 }
  - { offset: 0x25FF8, size: 0x8, addend: 0x0, symName: __ZNKSt7__cxx1112basic_stringIcSt11char_traitsIcESaIcEE4sizeEv, symObjAddr: 0x23C, symBinAddr: 0x100000B5C, symSize: 0x18 }
  - { offset: 0x260AA, size: 0x8, addend: 0x0, symName: __ZSt4moveIRSaIcEEONSt16remove_referenceIT_E4typeEOS3_, symObjAddr: 0x228, symBinAddr: 0x100000B48, symSize: 0x14 }
  - { offset: 0x26114, size: 0x8, addend: 0x0, symName: __ZNSt7__cxx1112basic_stringIcSt11char_traitsIcESaIcEE12_Alloc_hiderC1EPcOS3_, symObjAddr: 0x1CC, symBinAddr: 0x100000AEC, symSize: 0x5C }
  - { offset: 0x261A0, size: 0x8, addend: 0x0, symName: __ZSt11__addressofIcEPT_RS0_, symObjAddr: 0x1B8, symBinAddr: 0x100000AD8, symSize: 0x14 }
  - { offset: 0x261D2, size: 0x8, addend: 0x0, symName: __ZSt9addressofIcEPT_RS0_, symObjAddr: 0x19C, symBinAddr: 0x100000ABC, symSize: 0x1C }
  - { offset: 0x26204, size: 0x8, addend: 0x0, symName: __ZNSt19__ptr_traits_ptr_toIPccLb0EE10pointer_toERc, symObjAddr: 0x180, symBinAddr: 0x100000AA0, symSize: 0x1C }
  - { offset: 0x26231, size: 0x8, addend: 0x0, symName: __ZNSt7__cxx1112basic_stringIcSt11char_traitsIcESaIcEE13_M_local_dataEv, symObjAddr: 0x160, symBinAddr: 0x100000A80, symSize: 0x20 }
  - { offset: 0x26282, size: 0x8, addend: 0x0, symName: __ZNSt7__cxx1112basic_stringIcSt11char_traitsIcESaIcEE12_Alloc_hiderD1Ev, symObjAddr: 0x140, symBinAddr: 0x100000A60, symSize: 0x20 }
  - { offset: 0x263BB, size: 0x8, addend: 0x0, symName: __ZL18__gthread_active_pv, symObjAddr: 0x138, symBinAddr: 0x100000A58, symSize: 0x8 }
  - { offset: 0x263D3, size: 0x8, addend: 0x0, symName: __ZNSt11char_traitsIcE4copyEPcPKcm, symObjAddr: 0xC0, symBinAddr: 0x1000009E0, symSize: 0x78 }
  - { offset: 0x26439, size: 0x8, addend: 0x0, symName: __ZNSt11char_traitsIcE6lengthEPKc, symObjAddr: 0x84, symBinAddr: 0x1000009A4, symSize: 0x3C }
  - { offset: 0x2647D, size: 0x8, addend: 0x0, symName: __ZNSt11char_traitsIcE6assignERcRKc, symObjAddr: 0x38, symBinAddr: 0x100000958, symSize: 0x4C }
  - { offset: 0x264D2, size: 0x8, addend: 0x0, symName: __ZSt21is_constant_evaluatedv, symObjAddr: 0x30, symBinAddr: 0x100000950, symSize: 0x8 }
  - { offset: 0x264F1, size: 0x8, addend: 0x0, symName: __ZdlPvS_, symObjAddr: 0x18, symBinAddr: 0x100000938, symSize: 0x18 }
  - { offset: 0x26527, size: 0x8, addend: 0x0, symName: __ZnwmPv, symObjAddr: 0x0, symBinAddr: 0x100000920, symSize: 0x18 }
  - { offset: 0x33F7E, size: 0x8, addend: 0x0, symName: __ZN6engine9Component4moveEff, symObjAddr: 0x3A4, symBinAddr: 0x100002D30, symSize: 0x60 }
  - { offset: 0x33FC8, size: 0x8, addend: 0x0, symName: __ZN6engine9Component15set_coordinatesEff, symObjAddr: 0x370, symBinAddr: 0x100002CFC, symSize: 0x34 }
  - { offset: 0x3406D, size: 0x8, addend: 0x0, symName: __ZN6engine9ComponentC1EffffNSt7__cxx1112basic_stringIcSt11char_traitsIcESaIcEEE, symObjAddr: 0x2F0, symBinAddr: 0x100002C7C, symSize: 0x80 }
  - { offset: 0x340C5, size: 0x8, addend: 0x0, symName: __ZN6engine9ComponentC2EffffNSt7__cxx1112basic_stringIcSt11char_traitsIcESaIcEEE, symObjAddr: 0x270, symBinAddr: 0x100002BFC, symSize: 0x80 }
  - { offset: 0x34119, size: 0x8, addend: 0x0, symName: __ZN6engine9Component11on_mouse_upERK9SDL_Event, symObjAddr: 0x228, symBinAddr: 0x100002BE4, symSize: 0x18 }
  - { offset: 0x34153, size: 0x8, addend: 0x0, symName: __ZN6engine9Component13on_mouse_downERK9SDL_Event, symObjAddr: 0x210, symBinAddr: 0x100002BCC, symSize: 0x18 }
  - { offset: 0x4BF84, size: 0x8, addend: 0x0, symName: __ZN9constantsL8gResPathE, symObjAddr: 0x9348, symBinAddr: 0x100054000, symSize: 0x0 }
  - { offset: 0x4BF94, size: 0x8, addend: 0x0, symName: __ZN9constantsL6bg_strE, symObjAddr: 0xECFF0, symBinAddr: 0x100054160, symSize: 0x0 }
  - { offset: 0x4BFA4, size: 0x8, addend: 0x0, symName: __ZN9constantsL8ship_strE, symObjAddr: 0xED010, symBinAddr: 0x100054180, symSize: 0x0 }
  - { offset: 0x4BFB4, size: 0x8, addend: 0x0, symName: __ZN9constantsL6sign_0E, symObjAddr: 0xED030, symBinAddr: 0x1000541A0, symSize: 0x0 }
  - { offset: 0x4BFC4, size: 0x8, addend: 0x0, symName: __ZN9constantsL6sign_1E, symObjAddr: 0xED050, symBinAddr: 0x1000541C0, symSize: 0x0 }
  - { offset: 0x4BFD4, size: 0x8, addend: 0x0, symName: __ZN9constantsL6sign_2E, symObjAddr: 0xED070, symBinAddr: 0x1000541E0, symSize: 0x0 }
  - { offset: 0x4BFE4, size: 0x8, addend: 0x0, symName: __ZN9constantsL6sign_3E, symObjAddr: 0xED090, symBinAddr: 0x100054200, symSize: 0x0 }
  - { offset: 0x4BFF4, size: 0x8, addend: 0x0, symName: __ZN9constantsL6sign_4E, symObjAddr: 0xED0B0, symBinAddr: 0x100054220, symSize: 0x0 }
  - { offset: 0x4C004, size: 0x8, addend: 0x0, symName: __ZN9constantsL6sign_5E, symObjAddr: 0xED0D0, symBinAddr: 0x100054240, symSize: 0x0 }
  - { offset: 0x4C014, size: 0x8, addend: 0x0, symName: __ZN9constantsL6sign_6E, symObjAddr: 0xED0F0, symBinAddr: 0x100054260, symSize: 0x0 }
  - { offset: 0x4C024, size: 0x8, addend: 0x0, symName: __ZN9constantsL6sign_7E, symObjAddr: 0xED110, symBinAddr: 0x100054280, symSize: 0x0 }
  - { offset: 0x4C034, size: 0x8, addend: 0x0, symName: __ZN9constantsL6sign_8E, symObjAddr: 0xED130, symBinAddr: 0x1000542A0, symSize: 0x0 }
  - { offset: 0x4C044, size: 0x8, addend: 0x0, symName: __ZN9constantsL6sign_9E, symObjAddr: 0xED150, symBinAddr: 0x1000542C0, symSize: 0x0 }
  - { offset: 0x4C054, size: 0x8, addend: 0x0, symName: __ZN9constantsL10sample_strE, symObjAddr: 0xED170, symBinAddr: 0x1000542E0, symSize: 0x0 }
  - { offset: 0x4C064, size: 0x8, addend: 0x0, symName: __ZN9constantsL13standard_fontE, symObjAddr: 0xED190, symBinAddr: 0x100054300, symSize: 0x0 }
  - { offset: 0x4C074, size: 0x8, addend: 0x0, symName: __ZStL8__ioinit, symObjAddr: 0xED1B0, symBinAddr: 0x100054320, symSize: 0x0 }
  - { offset: 0x4C1A3, size: 0x8, addend: 0x0, symName: __ZN6engine4coreE, symObjAddr: 0xED1B8, symBinAddr: 0x100055928, symSize: 0x0 }
  - { offset: 0x4C4FF, size: 0x8, addend: 0x0, symName: __GLOBAL__sub_I_Engine.cpp, symObjAddr: 0x9760, symBinAddr: 0x10000A8D8, symSize: 0x14 }
  - { offset: 0x4C517, size: 0x8, addend: 0x0, symName: __Z41__static_initialization_and_destruction_0v, symObjAddr: 0x9388, symBinAddr: 0x10000A500, symSize: 0x3D8 }
  - { offset: 0x4C59A, size: 0x8, addend: 0x0, symName: __ZSt4moveIRPN6engine10UI_ElementEEONSt16remove_referenceIT_E4typeEOS5_, symObjAddr: 0x8DF4, symBinAddr: 0x10000A4EC, symSize: 0x14 }
  - { offset: 0x4C5D3, size: 0x8, addend: 0x0, symName: __ZSt4moveIRPN6engine6SpriteEEONSt16remove_referenceIT_E4typeEOS5_, symObjAddr: 0x8DE0, symBinAddr: 0x10000A4D8, symSize: 0x14 }
  - { offset: 0x4C605, size: 0x8, addend: 0x0, symName: __ZSt4swapIPN6engine10UI_ElementEENSt9enable_ifIXsrSt6__and_IJSt6__not_ISt15__is_tuple_likeIT_EESt21is_move_constructibleIS7_ESt18is_move_assignableIS7_EEE5valueEvE4typeERS7_SH_, symObjAddr: 0x8D8C, symBinAddr: 0x10000A484, symSize: 0x54 }
  - { offset: 0x4C657, size: 0x8, addend: 0x0, symName: __ZSt4swapIPN6engine6SpriteEENSt9enable_ifIXsrSt6__and_IJSt6__not_ISt15__is_tuple_likeIT_EESt21is_move_constructibleIS7_ESt18is_move_assignableIS7_EEE5valueEvE4typeERS7_SH_, symObjAddr: 0x8D38, symBinAddr: 0x10000A430, symSize: 0x54 }
  - { offset: 0x4C6AD, size: 0x8, addend: 0x0, symName: __ZNSt12__shared_ptrIN6engine10UI_ElementELN9__gnu_cxx12_Lock_policyE2EE4swapERS4_, symObjAddr: 0x8CF4, symBinAddr: 0x10000A3EC, symSize: 0x44 }
  - { offset: 0x4C6EB, size: 0x8, addend: 0x0, symName: __ZSt4moveIRSt12__shared_ptrIN6engine10UI_ElementELN9__gnu_cxx12_Lock_policyE2EEEONSt16remove_referenceIT_E4typeEOS8_, symObjAddr: 0x8CE0, symBinAddr: 0x10000A3D8, symSize: 0x14 }
  - { offset: 0x4C721, size: 0x8, addend: 0x0, symName: __ZNSt12__shared_ptrIN6engine6SpriteELN9__gnu_cxx12_Lock_policyE2EE4swapERS4_, symObjAddr: 0x8C9C, symBinAddr: 0x10000A394, symSize: 0x44 }
  - { offset: 0x4C75F, size: 0x8, addend: 0x0, symName: __ZSt4moveIRSt12__shared_ptrIN6engine6SpriteELN9__gnu_cxx12_Lock_policyE2EEEONSt16remove_referenceIT_E4typeEOS8_, symObjAddr: 0x8C88, symBinAddr: 0x10000A380, symSize: 0x14 }
  - { offset: 0x4C795, size: 0x8, addend: 0x0, symName: __ZNSt12__shared_ptrIN6engine10UI_ElementELN9__gnu_cxx12_Lock_policyE2EEaSEOS4_, symObjAddr: 0x8C44, symBinAddr: 0x10000A33C, symSize: 0x44 }
  - { offset: 0x4C7D0, size: 0x8, addend: 0x0, symName: __ZNSt12__shared_ptrIN6engine6SpriteELN9__gnu_cxx12_Lock_policyE2EEaSEOS4_, symObjAddr: 0x8C00, symBinAddr: 0x10000A2F8, symSize: 0x44 }
  - { offset: 0x4C80B, size: 0x8, addend: 0x0, symName: __ZNSt10shared_ptrIN6engine10UI_ElementEEaSEOS2_, symObjAddr: 0x8BC4, symBinAddr: 0x10000A2BC, symSize: 0x3C }
  - { offset: 0x4C846, size: 0x8, addend: 0x0, symName: __ZNSt10shared_ptrIN6engine6SpriteEEaSEOS2_, symObjAddr: 0x8B88, symBinAddr: 0x10000A280, symSize: 0x3C }
  - { offset: 0x4C87D, size: 0x8, addend: 0x0, symName: __ZSt12construct_atISt10shared_ptrIN6engine6SpriteEEJS3_EEDTgsnwcvPvLi0E_T_pispcl7declvalIT0_EEEEPS5_DpOS6_, symObjAddr: 0x8B20, symBinAddr: 0x10000A218, symSize: 0x68 }
  - { offset: 0x4C8D2, size: 0x8, addend: 0x0, symName: __ZSt7forwardISt10shared_ptrIN6engine6SpriteEEEOT_RNSt16remove_referenceIS4_E4typeE, symObjAddr: 0x8B0C, symBinAddr: 0x10000A204, symSize: 0x14 }
  - { offset: 0x4C904, size: 0x8, addend: 0x0, symName: __ZSt12construct_atISt10shared_ptrIN6engine10UI_ElementEEJS3_EEDTgsnwcvPvLi0E_T_pispcl7declvalIT0_EEEEPS5_DpOS6_, symObjAddr: 0x8AA4, symBinAddr: 0x10000A19C, symSize: 0x68 }
  - { offset: 0x4C959, size: 0x8, addend: 0x0, symName: __ZSt7forwardISt10shared_ptrIN6engine10UI_ElementEEEOT_RNSt16remove_referenceIS4_E4typeE, symObjAddr: 0x8A90, symBinAddr: 0x10000A188, symSize: 0x14 }
  - { offset: 0x4C9CE, size: 0x8, addend: 0x0, symName: __ZNSt11__copy_moveILb1ELb0ESt26random_access_iterator_tagE8__copy_mIPSt10shared_ptrIN6engine10UI_ElementEES7_EET0_T_S9_S8_, symObjAddr: 0x8A14, symBinAddr: 0x10000A10C, symSize: 0x7C }
  - { offset: 0x4CA5D, size: 0x8, addend: 0x0, symName: __ZNSt11__copy_moveILb1ELb0ESt26random_access_iterator_tagE8__copy_mIPSt10shared_ptrIN6engine6SpriteEES7_EET0_T_S9_S8_, symObjAddr: 0x8998, symBinAddr: 0x10000A090, symSize: 0x7C }
  - { offset: 0x4CBA8, size: 0x8, addend: 0x0, symName: __ZNSt15__new_allocatorISt13_Rb_tree_nodeISt10shared_ptrIN6engine10UI_ElementEEEE10deallocateEPS5_m, symObjAddr: 0x895C, symBinAddr: 0x10000A054, symSize: 0x3C }
  - { offset: 0x4CBF2, size: 0x8, addend: 0x0, symName: __ZN9__gnu_cxx16__aligned_membufISt10shared_ptrIN6engine10UI_ElementEEE7_M_addrEv, symObjAddr: 0x8948, symBinAddr: 0x10000A040, symSize: 0x14 }
  - { offset: 0x4CC1C, size: 0x8, addend: 0x0, symName: __ZNSt15__new_allocatorISt13_Rb_tree_nodeISt10shared_ptrIN6engine6SpriteEEEE10deallocateEPS5_m, symObjAddr: 0x890C, symBinAddr: 0x10000A004, symSize: 0x3C }
  - { offset: 0x4CC66, size: 0x8, addend: 0x0, symName: __ZN9__gnu_cxx16__aligned_membufISt10shared_ptrIN6engine6SpriteEEE7_M_addrEv, symObjAddr: 0x88F8, symBinAddr: 0x100009FF0, symSize: 0x14 }
  - { offset: 0x4CC8C, size: 0x8, addend: 0x0, symName: __ZSt19__relocate_object_aISt8functionIFvvEES2_SaIS2_EEvPT_PT0_RT1_, symObjAddr: 0x8880, symBinAddr: 0x100009F78, symSize: 0x78 }
  - { offset: 0x4CD5B, size: 0x8, addend: 0x0, symName: __ZNSt15__new_allocatorISt8functionIFvvEEE8allocateEmPKv, symObjAddr: 0x8804, symBinAddr: 0x100009EFC, symSize: 0x7C }
  - { offset: 0x4CDCD, size: 0x8, addend: 0x0, symName: __ZSt14__copy_move_a2ILb1EPSt10shared_ptrIN6engine10UI_ElementEES4_ET1_T0_S6_S5_, symObjAddr: 0x87B0, symBinAddr: 0x100009EA8, symSize: 0x54 }
  - { offset: 0x4CE35, size: 0x8, addend: 0x0, symName: __ZSt14__copy_move_a2ILb1EPSt10shared_ptrIN6engine6SpriteEES4_ET1_T0_S6_S5_, symObjAddr: 0x875C, symBinAddr: 0x100009E54, symSize: 0x54 }
  - { offset: 0x4CE9D, size: 0x8, addend: 0x0, symName: __ZSt19__relocate_object_aISt10shared_ptrIN6engine6SpriteEES3_SaIS3_EEvPT_PT0_RT1_, symObjAddr: 0x86E4, symBinAddr: 0x100009DDC, symSize: 0x78 }
  - { offset: 0x4CF6C, size: 0x8, addend: 0x0, symName: __ZNSt15__new_allocatorISt10shared_ptrIN6engine6SpriteEEE8allocateEmPKv, symObjAddr: 0x8668, symBinAddr: 0x100009D60, symSize: 0x7C }
  - { offset: 0x4CFE2, size: 0x8, addend: 0x0, symName: __ZNSt14__shared_countILN9__gnu_cxx12_Lock_policyE2EE7_M_swapERS2_, symObjAddr: 0x8628, symBinAddr: 0x100009D20, symSize: 0x40 }
  - { offset: 0x4D02A, size: 0x8, addend: 0x0, symName: __ZSt19__relocate_object_aISt10shared_ptrIN6engine10UI_ElementEES3_SaIS3_EEvPT_PT0_RT1_, symObjAddr: 0x85B0, symBinAddr: 0x100009CA8, symSize: 0x78 }
  - { offset: 0x4D0F9, size: 0x8, addend: 0x0, symName: __ZNSt15__new_allocatorISt10shared_ptrIN6engine10UI_ElementEEE8allocateEmPKv, symObjAddr: 0x8534, symBinAddr: 0x100009C2C, symSize: 0x7C }
  - { offset: 0x4D19F, size: 0x8, addend: 0x0, symName: __ZN9__gnu_cxx16__aligned_membufISt10shared_ptrIN6engine10UI_ElementEEE6_M_ptrEv, symObjAddr: 0x8518, symBinAddr: 0x100009C10, symSize: 0x1C }
  - { offset: 0x4D1F9, size: 0x8, addend: 0x0, symName: __ZN9__gnu_cxx16__aligned_membufISt10shared_ptrIN6engine6SpriteEEE6_M_ptrEv, symObjAddr: 0x84FC, symBinAddr: 0x100009BF4, symSize: 0x1C }
  - { offset: 0x4D21F, size: 0x8, addend: 0x0, symName: __ZSt10destroy_atISt8functionIFvvEEEvPT_, symObjAddr: 0x84DC, symBinAddr: 0x100009BD4, symSize: 0x20 }
  - { offset: 0x4D251, size: 0x8, addend: 0x0, symName: __ZSt14__relocate_a_1IPSt8functionIFvvEES3_SaIS2_EET0_T_S6_S5_RT1_, symObjAddr: 0x8458, symBinAddr: 0x100009B50, symSize: 0x84 }
  - { offset: 0x4D2DA, size: 0x8, addend: 0x0, symName: __ZSt12__niter_baseIPSt8functionIFvvEEET_S4_, symObjAddr: 0x8444, symBinAddr: 0x100009B3C, symSize: 0x14 }
  - { offset: 0x4D330, size: 0x8, addend: 0x0, symName: __ZSt12__niter_wrapIN9__gnu_cxx17__normal_iteratorIPSt10shared_ptrIN6engine10UI_ElementEESt6vectorIS5_SaIS5_EEEES6_ET_SB_T0_, symObjAddr: 0x83FC, symBinAddr: 0x100009AF4, symSize: 0x48 }
  - { offset: 0x4D37D, size: 0x8, addend: 0x0, symName: __ZSt14__copy_move_a1ILb1EPSt10shared_ptrIN6engine10UI_ElementEES4_ET1_T0_S6_S5_, symObjAddr: 0x83D0, symBinAddr: 0x100009AC8, symSize: 0x2C }
  - { offset: 0x4D3E5, size: 0x8, addend: 0x0, symName: __ZSt12__niter_baseIPSt10shared_ptrIN6engine10UI_ElementEESt6vectorIS3_SaIS3_EEET_N9__gnu_cxx17__normal_iteratorIS8_T0_EE, symObjAddr: 0x83B0, symBinAddr: 0x100009AA8, symSize: 0x20 }
  - { offset: 0x4D421, size: 0x8, addend: 0x0, symName: __ZSt12__niter_wrapIN9__gnu_cxx17__normal_iteratorIPSt10shared_ptrIN6engine6SpriteEESt6vectorIS5_SaIS5_EEEES6_ET_SB_T0_, symObjAddr: 0x8368, symBinAddr: 0x100009A60, symSize: 0x48 }
  - { offset: 0x4D46E, size: 0x8, addend: 0x0, symName: __ZSt14__copy_move_a1ILb1EPSt10shared_ptrIN6engine6SpriteEES4_ET1_T0_S6_S5_, symObjAddr: 0x833C, symBinAddr: 0x100009A34, symSize: 0x2C }
  - { offset: 0x4D4D6, size: 0x8, addend: 0x0, symName: __ZSt12__niter_baseIPSt10shared_ptrIN6engine6SpriteEESt6vectorIS3_SaIS3_EEET_N9__gnu_cxx17__normal_iteratorIS8_T0_EE, symObjAddr: 0x831C, symBinAddr: 0x100009A14, symSize: 0x20 }
  - { offset: 0x4D512, size: 0x8, addend: 0x0, symName: __ZNSt14_Function_base13_Base_managerIZN6engine6Engine10add_spriteESt10shared_ptrINS1_6SpriteEEEUlvE_E9_M_createIRKS6_EEvRSt9_Any_dataOT_St17integral_constantIbLb0EE, symObjAddr: 0x82A8, symBinAddr: 0x1000099A0, symSize: 0x74 }
  - { offset: 0x4D564, size: 0x8, addend: 0x0, symName: __ZN6engine6Engine10add_spriteESt10shared_ptrINS_6SpriteEE, symObjAddr: 0x24A0, symBinAddr: 0x10000435C, symSize: 0x110 }
  - { offset: 0x4D5E0, size: 0x8, addend: 0x0, symName: __ZZN6engine6Engine10add_spriteESt10shared_ptrINS_6SpriteEEENKUlvE_clEv, symObjAddr: 0x2270, symBinAddr: 0x10000412C, symSize: 0x20C }
  - { offset: 0x4D6B1, size: 0x8, addend: 0x0, symName: __ZZN6engine6Engine10add_spriteESt10shared_ptrINS_6SpriteEEENUlvE_D1Ev, symObjAddr: 0x247C, symBinAddr: 0x100004338, symSize: 0x24 }
  - { offset: 0x4D6D7, size: 0x8, addend: 0x0, symName: __ZZN6engine6Engine10add_spriteESt10shared_ptrINS_6SpriteEEENUlvE_C1EOS4_, symObjAddr: 0x6EE0, symBinAddr: 0x100008600, symSize: 0x48 }
  - { offset: 0x4D706, size: 0x8, addend: 0x0, symName: __ZZN6engine6Engine10add_spriteESt10shared_ptrINS_6SpriteEEENUlvE_C1ERKS4_, symObjAddr: 0x8260, symBinAddr: 0x100009958, symSize: 0x48 }
  - { offset: 0x4D73A, size: 0x8, addend: 0x0, symName: __ZSt7forwardIRKZN6engine6Engine10add_spriteESt10shared_ptrINS0_6SpriteEEEUlvE_EOT_RNSt16remove_referenceIS8_E4typeE, symObjAddr: 0x824C, symBinAddr: 0x100009944, symSize: 0x14 }
  - { offset: 0x4D798, size: 0x8, addend: 0x0, symName: __ZNSt12__shared_ptrIN6engine6SpriteELN9__gnu_cxx12_Lock_policyE2EEC1EOS4_, symObjAddr: 0x81F0, symBinAddr: 0x1000098E8, symSize: 0x5C }
  - { offset: 0x4D7CB, size: 0x8, addend: 0x0, symName: __ZNSt12__shared_ptrIN6engine6SpriteELN9__gnu_cxx12_Lock_policyE2EEC2EOS4_, symObjAddr: 0x8194, symBinAddr: 0x10000988C, symSize: 0x5C }
  - { offset: 0x4D7FD, size: 0x8, addend: 0x0, symName: __ZSt4moveIRSt10shared_ptrIN6engine6SpriteEEEONSt16remove_referenceIT_E4typeEOS6_, symObjAddr: 0x8180, symBinAddr: 0x100009878, symSize: 0x14 }
  - { offset: 0x4D82F, size: 0x8, addend: 0x0, symName: __ZSt14__relocate_a_1IPSt10shared_ptrIN6engine6SpriteEES4_SaIS3_EET0_T_S7_S6_RT1_, symObjAddr: 0x80FC, symBinAddr: 0x1000097F4, symSize: 0x84 }
  - { offset: 0x4D8B8, size: 0x8, addend: 0x0, symName: __ZSt12__niter_baseIPSt10shared_ptrIN6engine6SpriteEEET_S5_, symObjAddr: 0x80E8, symBinAddr: 0x1000097E0, symSize: 0x14 }
  - { offset: 0x4D90E, size: 0x8, addend: 0x0, symName: __ZNSt14_Function_base13_Base_managerIZN6engine6Engine14add_ui_elementESt10shared_ptrINS1_10UI_ElementEEEUlvE_E9_M_createIRKS6_EEvRSt9_Any_dataOT_St17integral_constantIbLb0EE, symObjAddr: 0x8074, symBinAddr: 0x10000976C, symSize: 0x74 }
  - { offset: 0x4D960, size: 0x8, addend: 0x0, symName: __ZN6engine6Engine14add_ui_elementESt10shared_ptrINS_10UI_ElementEE, symObjAddr: 0x2030, symBinAddr: 0x100003EEC, symSize: 0x110 }
  - { offset: 0x4D9DC, size: 0x8, addend: 0x0, symName: __ZZN6engine6Engine14add_ui_elementESt10shared_ptrINS_10UI_ElementEEENKUlvE_clEv, symObjAddr: 0x1DB0, symBinAddr: 0x100003C6C, symSize: 0x25C }
  - { offset: 0x4DAAD, size: 0x8, addend: 0x0, symName: __ZZN6engine6Engine14add_ui_elementESt10shared_ptrINS_10UI_ElementEEENUlvE_D1Ev, symObjAddr: 0x200C, symBinAddr: 0x100003EC8, symSize: 0x24 }
  - { offset: 0x4DAD3, size: 0x8, addend: 0x0, symName: __ZZN6engine6Engine14add_ui_elementESt10shared_ptrINS_10UI_ElementEEENUlvE_C1EOS4_, symObjAddr: 0x6B64, symBinAddr: 0x100008284, symSize: 0x48 }
  - { offset: 0x4DB02, size: 0x8, addend: 0x0, symName: __ZZN6engine6Engine14add_ui_elementESt10shared_ptrINS_10UI_ElementEEENUlvE_C1ERKS4_, symObjAddr: 0x802C, symBinAddr: 0x100009724, symSize: 0x48 }
  - { offset: 0x4DB36, size: 0x8, addend: 0x0, symName: __ZSt7forwardIRKZN6engine6Engine14add_ui_elementESt10shared_ptrINS0_10UI_ElementEEEUlvE_EOT_RNSt16remove_referenceIS8_E4typeE, symObjAddr: 0x8018, symBinAddr: 0x100009710, symSize: 0x14 }
  - { offset: 0x4DB94, size: 0x8, addend: 0x0, symName: __ZNSt12__shared_ptrIN6engine10UI_ElementELN9__gnu_cxx12_Lock_policyE2EEC1EOS4_, symObjAddr: 0x7FBC, symBinAddr: 0x1000096B4, symSize: 0x5C }
  - { offset: 0x4DBC7, size: 0x8, addend: 0x0, symName: __ZNSt12__shared_ptrIN6engine10UI_ElementELN9__gnu_cxx12_Lock_policyE2EEC2EOS4_, symObjAddr: 0x7F60, symBinAddr: 0x100009658, symSize: 0x5C }
  - { offset: 0x4DBF9, size: 0x8, addend: 0x0, symName: __ZSt4moveIRSt10shared_ptrIN6engine10UI_ElementEEEONSt16remove_referenceIT_E4typeEOS6_, symObjAddr: 0x7F4C, symBinAddr: 0x100009644, symSize: 0x14 }
  - { offset: 0x4DC2B, size: 0x8, addend: 0x0, symName: __ZSt14__relocate_a_1IPSt10shared_ptrIN6engine10UI_ElementEES4_SaIS3_EET0_T_S7_S6_RT1_, symObjAddr: 0x7EC8, symBinAddr: 0x1000095C0, symSize: 0x84 }
  - { offset: 0x4DCB4, size: 0x8, addend: 0x0, symName: __ZSt12__niter_baseIPSt10shared_ptrIN6engine10UI_ElementEEET_S5_, symObjAddr: 0x7EB4, symBinAddr: 0x1000095AC, symSize: 0x14 }
  - { offset: 0x4DD6D, size: 0x8, addend: 0x0, symName: __ZNSt13_Rb_tree_nodeISt10shared_ptrIN6engine10UI_ElementEEE9_M_valptrEv, symObjAddr: 0x7E94, symBinAddr: 0x10000958C, symSize: 0x20 }
  - { offset: 0x4DD97, size: 0x8, addend: 0x0, symName: __ZNSt8_Rb_treeISt10shared_ptrIN6engine10UI_ElementEES3_St9_IdentityIS3_ESt4lessIS3_ESaIS3_EE21_M_get_Node_allocatorEv, symObjAddr: 0x7E80, symBinAddr: 0x100009578, symSize: 0x14 }
  - { offset: 0x4DE20, size: 0x8, addend: 0x0, symName: __ZNSt13_Rb_tree_nodeISt10shared_ptrIN6engine6SpriteEEE9_M_valptrEv, symObjAddr: 0x7E60, symBinAddr: 0x100009558, symSize: 0x20 }
  - { offset: 0x4DE4A, size: 0x8, addend: 0x0, symName: __ZNSt8_Rb_treeISt10shared_ptrIN6engine6SpriteEES3_St9_IdentityIS3_ESt4lessIS3_ESaIS3_EE21_M_get_Node_allocatorEv, symObjAddr: 0x7E4C, symBinAddr: 0x100009544, symSize: 0x14 }
  - { offset: 0x4DE74, size: 0x8, addend: 0x0, symName: __ZNSt15__new_allocatorISt10shared_ptrIN6engine10UI_ElementEEE10deallocateEPS3_m, symObjAddr: 0x7E1C, symBinAddr: 0x100009514, symSize: 0x30 }
  - { offset: 0x4DEBE, size: 0x8, addend: 0x0, symName: __ZNSt15__new_allocatorISt10shared_ptrIN6engine6SpriteEEE10deallocateEPS3_m, symObjAddr: 0x7DEC, symBinAddr: 0x1000094E4, symSize: 0x30 }
  - { offset: 0x4DF04, size: 0x8, addend: 0x0, symName: __ZSt8_DestroyISt8functionIFvvEEEvPT_, symObjAddr: 0x7DCC, symBinAddr: 0x1000094C4, symSize: 0x20 }
  - { offset: 0x4DF36, size: 0x8, addend: 0x0, symName: __ZSt11__addressofISt8functionIFvvEEEPT_RS3_, symObjAddr: 0x7DB8, symBinAddr: 0x1000094B0, symSize: 0x14 }
  - { offset: 0x4DF6C, size: 0x8, addend: 0x0, symName: __ZNSt15__new_allocatorISt8functionIFvvEEE10deallocateEPS2_m, symObjAddr: 0x7D88, symBinAddr: 0x100009480, symSize: 0x30 }
  - { offset: 0x4DFB2, size: 0x8, addend: 0x0, symName: __ZSt12__relocate_aIPSt8functionIFvvEES3_SaIS2_EET0_T_S6_S5_RT1_, symObjAddr: 0x7D2C, symBinAddr: 0x100009424, symSize: 0x5C }
  - { offset: 0x4E07A, size: 0x8, addend: 0x0, symName: __ZNSt8functionIFvvEEC1EOS1_, symObjAddr: 0x7CA8, symBinAddr: 0x1000093A0, symSize: 0x84 }
  - { offset: 0x4E0A5, size: 0x8, addend: 0x0, symName: __ZSt8_DestroyISt10shared_ptrIN6engine10UI_ElementEEEvPT_, symObjAddr: 0x7C88, symBinAddr: 0x100009380, symSize: 0x20 }
  - { offset: 0x4E0D7, size: 0x8, addend: 0x0, symName: __ZSt8_DestroyISt10shared_ptrIN6engine6SpriteEEEvPT_, symObjAddr: 0x7C68, symBinAddr: 0x100009360, symSize: 0x20 }
  - { offset: 0x4E124, size: 0x8, addend: 0x0, symName: __ZSt10destroy_atISt10shared_ptrIN6engine10UI_ElementEEEvPT_, symObjAddr: 0x7C48, symBinAddr: 0x100009340, symSize: 0x20 }
  - { offset: 0x4E156, size: 0x8, addend: 0x0, symName: __ZSt13__copy_move_aILb1EN9__gnu_cxx17__normal_iteratorIPSt10shared_ptrIN6engine10UI_ElementEESt6vectorIS5_SaIS5_EEEESA_ET1_T0_SC_SB_, symObjAddr: 0x7BE8, symBinAddr: 0x1000092E0, symSize: 0x60 }
  - { offset: 0x4E1BE, size: 0x8, addend: 0x0, symName: __ZSt12__miter_baseIN9__gnu_cxx17__normal_iteratorIPSt10shared_ptrIN6engine10UI_ElementEESt6vectorIS5_SaIS5_EEEEET_SB_, symObjAddr: 0x7BD4, symBinAddr: 0x1000092CC, symSize: 0x14 }
  - { offset: 0x4E1F1, size: 0x8, addend: 0x0, symName: __ZSt10destroy_atISt10shared_ptrIN6engine6SpriteEEEvPT_, symObjAddr: 0x7BB4, symBinAddr: 0x1000092AC, symSize: 0x20 }
  - { offset: 0x4E223, size: 0x8, addend: 0x0, symName: __ZSt13__copy_move_aILb1EN9__gnu_cxx17__normal_iteratorIPSt10shared_ptrIN6engine6SpriteEESt6vectorIS5_SaIS5_EEEESA_ET1_T0_SC_SB_, symObjAddr: 0x7B54, symBinAddr: 0x10000924C, symSize: 0x60 }
  - { offset: 0x4E28B, size: 0x8, addend: 0x0, symName: __ZSt12__miter_baseIN9__gnu_cxx17__normal_iteratorIPSt10shared_ptrIN6engine6SpriteEESt6vectorIS5_SaIS5_EEEEET_SB_, symObjAddr: 0x7B40, symBinAddr: 0x100009238, symSize: 0x14 }
  - { offset: 0x4E2C2, size: 0x8, addend: 0x0, symName: __ZNK9__gnu_cxx16__aligned_membufISt10shared_ptrIN6engine10UI_ElementEEE7_M_addrEv, symObjAddr: 0x7B2C, symBinAddr: 0x100009224, symSize: 0x14 }
  - { offset: 0x4E2EC, size: 0x8, addend: 0x0, symName: __ZNK9__gnu_cxx16__aligned_membufISt10shared_ptrIN6engine6SpriteEEE7_M_addrEv, symObjAddr: 0x7B18, symBinAddr: 0x100009210, symSize: 0x14 }
  - { offset: 0x4E312, size: 0x8, addend: 0x0, symName: __ZNSt14_Function_base13_Base_managerIZN6engine6Engine10add_spriteESt10shared_ptrINS1_6SpriteEEEUlvE_E10_M_destroyERSt9_Any_dataSt17integral_constantIbLb0EE, symObjAddr: 0x7ACC, symBinAddr: 0x1000091C4, symSize: 0x4C }
  - { offset: 0x4E344, size: 0x8, addend: 0x0, symName: __ZNSt14_Function_base13_Base_managerIZN6engine6Engine10add_spriteESt10shared_ptrINS1_6SpriteEEEUlvE_E15_M_init_functorIRKS6_EEvRSt9_Any_dataOT_, symObjAddr: 0x7A90, symBinAddr: 0x100009188, symSize: 0x3C }
  - { offset: 0x4E386, size: 0x8, addend: 0x0, symName: __ZSt13__invoke_implIvRZN6engine6Engine10add_spriteESt10shared_ptrINS0_6SpriteEEEUlvE_JEET_St14__invoke_otherOT0_DpOT1_, symObjAddr: 0x7A68, symBinAddr: 0x100009160, symSize: 0x28 }
  - { offset: 0x4E3D7, size: 0x8, addend: 0x0, symName: __ZSt7forwardIRZN6engine6Engine10add_spriteESt10shared_ptrINS0_6SpriteEEEUlvE_EOT_RNSt16remove_referenceIS7_E4typeE, symObjAddr: 0x7A54, symBinAddr: 0x10000914C, symSize: 0x14 }
  - { offset: 0x4E414, size: 0x8, addend: 0x0, symName: __ZNKSt9_Any_data9_M_accessIPZN6engine6Engine10add_spriteESt10shared_ptrINS1_6SpriteEEEUlvE_EERKT_v, symObjAddr: 0x7A38, symBinAddr: 0x100009130, symSize: 0x1C }
  - { offset: 0x4E46F, size: 0x8, addend: 0x0, symName: __ZNSt10shared_ptrIN6engine6SpriteEEC1EOS2_, symObjAddr: 0x79FC, symBinAddr: 0x1000090F4, symSize: 0x3C }
  - { offset: 0x4E49A, size: 0x8, addend: 0x0, symName: __ZSt12__relocate_aIPSt10shared_ptrIN6engine6SpriteEES4_SaIS3_EET0_T_S7_S6_RT1_, symObjAddr: 0x79A0, symBinAddr: 0x100009098, symSize: 0x5C }
  - { offset: 0x4E536, size: 0x8, addend: 0x0, symName: __ZNSt14_Function_base13_Base_managerIZN6engine6Engine14add_ui_elementESt10shared_ptrINS1_10UI_ElementEEEUlvE_E10_M_destroyERSt9_Any_dataSt17integral_constantIbLb0EE, symObjAddr: 0x7954, symBinAddr: 0x10000904C, symSize: 0x4C }
  - { offset: 0x4E568, size: 0x8, addend: 0x0, symName: __ZNSt14_Function_base13_Base_managerIZN6engine6Engine14add_ui_elementESt10shared_ptrINS1_10UI_ElementEEEUlvE_E15_M_init_functorIRKS6_EEvRSt9_Any_dataOT_, symObjAddr: 0x7918, symBinAddr: 0x100009010, symSize: 0x3C }
  - { offset: 0x4E5AA, size: 0x8, addend: 0x0, symName: __ZSt13__invoke_implIvRZN6engine6Engine14add_ui_elementESt10shared_ptrINS0_10UI_ElementEEEUlvE_JEET_St14__invoke_otherOT0_DpOT1_, symObjAddr: 0x78F0, symBinAddr: 0x100008FE8, symSize: 0x28 }
  - { offset: 0x4E5FB, size: 0x8, addend: 0x0, symName: __ZSt7forwardIRZN6engine6Engine14add_ui_elementESt10shared_ptrINS0_10UI_ElementEEEUlvE_EOT_RNSt16remove_referenceIS7_E4typeE, symObjAddr: 0x78DC, symBinAddr: 0x100008FD4, symSize: 0x14 }
  - { offset: 0x4E638, size: 0x8, addend: 0x0, symName: __ZNKSt9_Any_data9_M_accessIPZN6engine6Engine14add_ui_elementESt10shared_ptrINS1_10UI_ElementEEEUlvE_EERKT_v, symObjAddr: 0x78C0, symBinAddr: 0x100008FB8, symSize: 0x1C }
  - { offset: 0x4E693, size: 0x8, addend: 0x0, symName: __ZNSt10shared_ptrIN6engine10UI_ElementEEC1EOS2_, symObjAddr: 0x7884, symBinAddr: 0x100008F7C, symSize: 0x3C }
  - { offset: 0x4E6BE, size: 0x8, addend: 0x0, symName: __ZSt12__relocate_aIPSt10shared_ptrIN6engine10UI_ElementEES4_SaIS3_EET0_T_S7_S6_RT1_, symObjAddr: 0x7828, symBinAddr: 0x100008F20, symSize: 0x5C }
  - { offset: 0x4E75E, size: 0x8, addend: 0x0, symName: __ZNSt8_Rb_treeISt10shared_ptrIN6engine10UI_ElementEES3_St9_IdentityIS3_ESt4lessIS3_ESaIS3_EE11_M_put_nodeEPSt13_Rb_tree_nodeIS3_E, symObjAddr: 0x77A8, symBinAddr: 0x100008EA0, symSize: 0x80 }
  - { offset: 0x4E81E, size: 0x8, addend: 0x0, symName: __ZNSt8_Rb_treeISt10shared_ptrIN6engine10UI_ElementEES3_St9_IdentityIS3_ESt4lessIS3_ESaIS3_EE15_M_destroy_nodeEPSt13_Rb_tree_nodeIS3_E, symObjAddr: 0x775C, symBinAddr: 0x100008E54, symSize: 0x4C }
  - { offset: 0x4E886, size: 0x8, addend: 0x0, symName: __ZNSt8_Rb_treeISt10shared_ptrIN6engine6SpriteEES3_St9_IdentityIS3_ESt4lessIS3_ESaIS3_EE11_M_put_nodeEPSt13_Rb_tree_nodeIS3_E, symObjAddr: 0x76DC, symBinAddr: 0x100008DD4, symSize: 0x80 }
  - { offset: 0x4E946, size: 0x8, addend: 0x0, symName: __ZNSt8_Rb_treeISt10shared_ptrIN6engine6SpriteEES3_St9_IdentityIS3_ESt4lessIS3_ESaIS3_EE15_M_destroy_nodeEPSt13_Rb_tree_nodeIS3_E, symObjAddr: 0x7690, symBinAddr: 0x100008D88, symSize: 0x4C }
  - { offset: 0x4EA0A, size: 0x8, addend: 0x0, symName: __ZNSt12_Destroy_auxILb0EE9__destroyIPSt8functionIFvvEEEEvT_S6_, symObjAddr: 0x7644, symBinAddr: 0x100008D3C, symSize: 0x4C }
  - { offset: 0x4EA80, size: 0x8, addend: 0x0, symName: __ZNK9__gnu_cxx17__normal_iteratorIPSt8functionIFvvEESt6vectorIS3_SaIS3_EEEmiEl, symObjAddr: 0x75D8, symBinAddr: 0x100008CF8, symSize: 0x44 }
  - { offset: 0x4EAB7, size: 0x8, addend: 0x0, symName: __ZNSt6vectorISt8functionIFvvEESaIS2_EE11_S_relocateEPS2_S5_S5_RS3_, symObjAddr: 0x75A4, symBinAddr: 0x100008CC4, symSize: 0x34 }
  - { offset: 0x4EB14, size: 0x8, addend: 0x0, symName: __ZSt12__to_addressISt8functionIFvvEEEPT_S4_, symObjAddr: 0x7590, symBinAddr: 0x100008CB0, symSize: 0x14 }
  - { offset: 0x4EB4A, size: 0x8, addend: 0x0, symName: __ZNSt12_Vector_baseISt8functionIFvvEESaIS2_EE11_M_allocateEm, symObjAddr: 0x74CC, symBinAddr: 0x100008BEC, symSize: 0xC4 }
  - { offset: 0x4EBF4, size: 0x8, addend: 0x0, symName: __ZSt12construct_atISt8functionIFvvEEJS2_EEDTgsnwcvPvLi0E_T_pispcl7declvalIT0_EEEEPS4_DpOS5_, symObjAddr: 0x7464, symBinAddr: 0x100008B84, symSize: 0x68 }
  - { offset: 0x4EC42, size: 0x8, addend: 0x0, symName: __ZNSt12_Destroy_auxILb0EE9__destroyIPSt10shared_ptrIN6engine10UI_ElementEEEEvT_S7_, symObjAddr: 0x7418, symBinAddr: 0x100008B38, symSize: 0x4C }
  - { offset: 0x4EC84, size: 0x8, addend: 0x0, symName: __ZSt11__addressofISt10shared_ptrIN6engine10UI_ElementEEEPT_RS4_, symObjAddr: 0x7404, symBinAddr: 0x100008B24, symSize: 0x14 }
  - { offset: 0x4ECB6, size: 0x8, addend: 0x0, symName: __ZNSt12_Destroy_auxILb0EE9__destroyIPSt10shared_ptrIN6engine6SpriteEEEEvT_S7_, symObjAddr: 0x73B8, symBinAddr: 0x100008AD8, symSize: 0x4C }
  - { offset: 0x4ECF8, size: 0x8, addend: 0x0, symName: __ZNSt20__uninitialized_copyILb0EE13__uninit_copyIN9__gnu_cxx17__normal_iteratorIPKSt10shared_ptrIN6engine6SpriteEESt6vectorIS7_SaIS7_EEEEPS7_EET0_T_SG_SF_, symObjAddr: 0x738C, symBinAddr: 0x100008AAC, symSize: 0x2C }
  - { offset: 0x4ED53, size: 0x8, addend: 0x0, symName: __ZSt10_ConstructISt10shared_ptrIN6engine6SpriteEEJRKS3_EEvPT_DpOT0_, symObjAddr: 0x7300, symBinAddr: 0x100008A20, symSize: 0x8C }
  - { offset: 0x4EDBE, size: 0x8, addend: 0x0, symName: __ZNK9__gnu_cxx17__normal_iteratorIPKSt10shared_ptrIN6engine6SpriteEESt6vectorIS4_SaIS4_EEEdeEv, symObjAddr: 0x72E8, symBinAddr: 0x100008A08, symSize: 0x18 }
  - { offset: 0x4EDE4, size: 0x8, addend: 0x0, symName: __ZSt11__addressofISt10shared_ptrIN6engine6SpriteEEEPT_RS4_, symObjAddr: 0x72D4, symBinAddr: 0x1000089F4, symSize: 0x14 }
  - { offset: 0x4EE1A, size: 0x8, addend: 0x0, symName: __ZN9__gnu_cxx17__normal_iteratorIPKSt10shared_ptrIN6engine6SpriteEESt6vectorIS4_SaIS4_EEEppEv, symObjAddr: 0x72AC, symBinAddr: 0x1000089CC, symSize: 0x28 }
  - { offset: 0x4EE98, size: 0x8, addend: 0x0, symName: __ZNSt6chrono8durationIxSt5ratioILl1ELl1000EEEC1IxvEERKT_, symObjAddr: 0x7284, symBinAddr: 0x1000089A4, symSize: 0x28 }
  - { offset: 0x4EECC, size: 0x8, addend: 0x0, symName: __ZNSt6chrono20__duration_cast_implINS_8durationIdSt5ratioILl1ELl1EEEES2_ILl1ELl1000000000EEdLb1ELb0EE6__castIxS5_EES4_RKNS1_IT_T0_EE, symObjAddr: 0x7234, symBinAddr: 0x100008954, symSize: 0x50 }
  - { offset: 0x4EF40, size: 0x8, addend: 0x0, symName: __ZSt4moveIN9__gnu_cxx17__normal_iteratorIPSt10shared_ptrIN6engine10UI_ElementEESt6vectorIS5_SaIS5_EEEESA_ET0_T_SC_SB_, symObjAddr: 0x71EC, symBinAddr: 0x10000890C, symSize: 0x48 }
  - { offset: 0x4EFCB, size: 0x8, addend: 0x0, symName: __ZSt4moveIN9__gnu_cxx17__normal_iteratorIPSt10shared_ptrIN6engine6SpriteEESt6vectorIS5_SaIS5_EEEESA_ET0_T_SC_SB_, symObjAddr: 0x71A4, symBinAddr: 0x1000088C4, symSize: 0x48 }
  - { offset: 0x4F02D, size: 0x8, addend: 0x0, symName: __ZNK9__gnu_cxx16__aligned_membufISt10shared_ptrIN6engine10UI_ElementEEE6_M_ptrEv, symObjAddr: 0x7188, symBinAddr: 0x1000088A8, symSize: 0x1C }
  - { offset: 0x4F07F, size: 0x8, addend: 0x0, symName: __ZNSt23_Rb_tree_const_iteratorISt10shared_ptrIN6engine10UI_ElementEEEC1EPKSt18_Rb_tree_node_base, symObjAddr: 0x7164, symBinAddr: 0x100008884, symSize: 0x24 }
  - { offset: 0x4F0AE, size: 0x8, addend: 0x0, symName: __ZNK9__gnu_cxx16__aligned_membufISt10shared_ptrIN6engine6SpriteEEE6_M_ptrEv, symObjAddr: 0x7148, symBinAddr: 0x100008868, symSize: 0x1C }
  - { offset: 0x4F100, size: 0x8, addend: 0x0, symName: __ZNSt23_Rb_tree_const_iteratorISt10shared_ptrIN6engine6SpriteEEEC1EPKSt18_Rb_tree_node_base, symObjAddr: 0x7124, symBinAddr: 0x100008844, symSize: 0x24 }
  - { offset: 0x4F149, size: 0x8, addend: 0x0, symName: __ZNSt12__shared_ptrIN6engine6SpriteELN9__gnu_cxx12_Lock_policyE2EEC2Ev, symObjAddr: 0x70F8, symBinAddr: 0x100008818, symSize: 0x2C }
  - { offset: 0x4F189, size: 0x8, addend: 0x0, symName: __ZNSt12__shared_ptrIN6engine10UI_ElementELN9__gnu_cxx12_Lock_policyE2EEC2Ev, symObjAddr: 0x70CC, symBinAddr: 0x1000087EC, symSize: 0x2C }
  - { offset: 0x4F1AB, size: 0x8, addend: 0x0, symName: __ZNSt14_Function_base13_Base_managerIZN6engine6Engine10add_spriteESt10shared_ptrINS1_6SpriteEEEUlvE_E10_M_managerERSt9_Any_dataRKS8_St18_Manager_operation, symObjAddr: 0x700C, symBinAddr: 0x10000872C, symSize: 0xC0 }
  - { offset: 0x4F1FF, size: 0x8, addend: 0x0, symName: __ZNSt9_Any_data9_M_accessIPZN6engine6Engine10add_spriteESt10shared_ptrINS1_6SpriteEEEUlvE_EERT_v, symObjAddr: 0x6FF0, symBinAddr: 0x100008710, symSize: 0x1C }
  - { offset: 0x4F22E, size: 0x8, addend: 0x0, symName: __ZSt10__invoke_rIvRZN6engine6Engine10add_spriteESt10shared_ptrINS0_6SpriteEEEUlvE_JEENSt9enable_ifIX16is_invocable_r_vIT_T0_JDpT1_EEES8_E4typeEOS9_DpOSA_, symObjAddr: 0x6FBC, symBinAddr: 0x1000086DC, symSize: 0x34 }
  - { offset: 0x4F26F, size: 0x8, addend: 0x0, symName: __ZNSt14_Function_base13_Base_managerIZN6engine6Engine10add_spriteESt10shared_ptrINS1_6SpriteEEEUlvE_E14_M_get_pointerERKSt9_Any_data, symObjAddr: 0x6F9C, symBinAddr: 0x1000086BC, symSize: 0x20 }
  - { offset: 0x4F29F, size: 0x8, addend: 0x0, symName: __ZNSt14_Function_base13_Base_managerIZN6engine6Engine10add_spriteESt10shared_ptrINS1_6SpriteEEEUlvE_E9_M_createIS6_EEvRSt9_Any_dataOT_St17integral_constantIbLb0EE, symObjAddr: 0x6F28, symBinAddr: 0x100008648, symSize: 0x74 }
  - { offset: 0x4F2EA, size: 0x8, addend: 0x0, symName: __ZNSt6vectorISt10shared_ptrIN6engine6SpriteEESaIS3_EE11_S_relocateEPS3_S6_S6_RS4_, symObjAddr: 0x6EAC, symBinAddr: 0x1000085CC, symSize: 0x34 }
  - { offset: 0x4F347, size: 0x8, addend: 0x0, symName: __ZSt12__to_addressISt10shared_ptrIN6engine6SpriteEEEPT_S5_, symObjAddr: 0x6E98, symBinAddr: 0x1000085B8, symSize: 0x14 }
  - { offset: 0x4F37D, size: 0x8, addend: 0x0, symName: __ZNSt12_Vector_baseISt10shared_ptrIN6engine6SpriteEESaIS3_EE11_M_allocateEm, symObjAddr: 0x6DD4, symBinAddr: 0x1000084F4, symSize: 0xC4 }
  - { offset: 0x4F427, size: 0x8, addend: 0x0, symName: __ZSt12construct_atISt10shared_ptrIN6engine6SpriteEEJRKS3_EEDTgsnwcvPvLi0E_T_pispcl7declvalIT0_EEEEPS7_DpOS8_, symObjAddr: 0x6D6C, symBinAddr: 0x10000848C, symSize: 0x68 }
  - { offset: 0x4F475, size: 0x8, addend: 0x0, symName: __ZNSt14_Function_base13_Base_managerIZN6engine6Engine14add_ui_elementESt10shared_ptrINS1_10UI_ElementEEEUlvE_E10_M_managerERSt9_Any_dataRKS8_St18_Manager_operation, symObjAddr: 0x6CAC, symBinAddr: 0x1000083CC, symSize: 0xC0 }
  - { offset: 0x4F4C9, size: 0x8, addend: 0x0, symName: __ZNSt9_Any_data9_M_accessIPZN6engine6Engine14add_ui_elementESt10shared_ptrINS1_10UI_ElementEEEUlvE_EERT_v, symObjAddr: 0x6C90, symBinAddr: 0x1000083B0, symSize: 0x1C }
  - { offset: 0x4F503, size: 0x8, addend: 0x0, symName: __ZNSt9_Any_data9_M_accessIPKSt9type_infoEERT_v, symObjAddr: 0x6C74, symBinAddr: 0x100008394, symSize: 0x1C }
  - { offset: 0x4F532, size: 0x8, addend: 0x0, symName: __ZSt10__invoke_rIvRZN6engine6Engine14add_ui_elementESt10shared_ptrINS0_10UI_ElementEEEUlvE_JEENSt9enable_ifIX16is_invocable_r_vIT_T0_JDpT1_EEES8_E4typeEOS9_DpOSA_, symObjAddr: 0x6C40, symBinAddr: 0x100008360, symSize: 0x34 }
  - { offset: 0x4F573, size: 0x8, addend: 0x0, symName: __ZNSt14_Function_base13_Base_managerIZN6engine6Engine14add_ui_elementESt10shared_ptrINS1_10UI_ElementEEEUlvE_E14_M_get_pointerERKSt9_Any_data, symObjAddr: 0x6C20, symBinAddr: 0x100008340, symSize: 0x20 }
  - { offset: 0x4F5A3, size: 0x8, addend: 0x0, symName: __ZNSt14_Function_base13_Base_managerIZN6engine6Engine14add_ui_elementESt10shared_ptrINS1_10UI_ElementEEEUlvE_E9_M_createIS6_EEvRSt9_Any_dataOT_St17integral_constantIbLb0EE, symObjAddr: 0x6BAC, symBinAddr: 0x1000082CC, symSize: 0x74 }
  - { offset: 0x4F5EE, size: 0x8, addend: 0x0, symName: __ZNSt6vectorISt10shared_ptrIN6engine10UI_ElementEESaIS3_EE11_S_relocateEPS3_S6_S6_RS4_, symObjAddr: 0x6B30, symBinAddr: 0x100008250, symSize: 0x34 }
  - { offset: 0x4F64B, size: 0x8, addend: 0x0, symName: __ZSt12__to_addressISt10shared_ptrIN6engine10UI_ElementEEEPT_S5_, symObjAddr: 0x6B1C, symBinAddr: 0x10000823C, symSize: 0x14 }
  - { offset: 0x4F681, size: 0x8, addend: 0x0, symName: __ZNSt12_Vector_baseISt10shared_ptrIN6engine10UI_ElementEESaIS3_EE11_M_allocateEm, symObjAddr: 0x6A58, symBinAddr: 0x100008178, symSize: 0xC4 }
  - { offset: 0x4F72B, size: 0x8, addend: 0x0, symName: __ZSt12construct_atISt10shared_ptrIN6engine10UI_ElementEEJRKS3_EEDTgsnwcvPvLi0E_T_pispcl7declvalIT0_EEEEPS7_DpOS8_, symObjAddr: 0x69F0, symBinAddr: 0x100008110, symSize: 0x68 }
  - { offset: 0x4F77D, size: 0x8, addend: 0x0, symName: __ZNKSt8_Rb_treeISt10shared_ptrIN6engine10UI_ElementEES3_St9_IdentityIS3_ESt4lessIS3_ESaIS3_EE9_M_mbeginEv, symObjAddr: 0x69D8, symBinAddr: 0x1000080F8, symSize: 0x18 }
  - { offset: 0x4F7A7, size: 0x8, addend: 0x0, symName: __ZNSt8_Rb_treeISt10shared_ptrIN6engine10UI_ElementEES3_St9_IdentityIS3_ESt4lessIS3_ESaIS3_EE12_M_drop_nodeEPSt13_Rb_tree_nodeIS3_E, symObjAddr: 0x69A4, symBinAddr: 0x1000080C4, symSize: 0x34 }
  - { offset: 0x4F7DE, size: 0x8, addend: 0x0, symName: __ZNSt8_Rb_treeISt10shared_ptrIN6engine10UI_ElementEES3_St9_IdentityIS3_ESt4lessIS3_ESaIS3_EE7_S_leftEPSt18_Rb_tree_node_base, symObjAddr: 0x698C, symBinAddr: 0x1000080AC, symSize: 0x18 }
  - { offset: 0x4F808, size: 0x8, addend: 0x0, symName: __ZNSt8_Rb_treeISt10shared_ptrIN6engine10UI_ElementEES3_St9_IdentityIS3_ESt4lessIS3_ESaIS3_EE8_S_rightEPSt18_Rb_tree_node_base, symObjAddr: 0x6974, symBinAddr: 0x100008094, symSize: 0x18 }
  - { offset: 0x4F84C, size: 0x8, addend: 0x0, symName: __ZNKSt8_Rb_treeISt10shared_ptrIN6engine6SpriteEES3_St9_IdentityIS3_ESt4lessIS3_ESaIS3_EE9_M_mbeginEv, symObjAddr: 0x695C, symBinAddr: 0x10000807C, symSize: 0x18 }
  - { offset: 0x4F876, size: 0x8, addend: 0x0, symName: __ZNSt8_Rb_treeISt10shared_ptrIN6engine6SpriteEES3_St9_IdentityIS3_ESt4lessIS3_ESaIS3_EE12_M_drop_nodeEPSt13_Rb_tree_nodeIS3_E, symObjAddr: 0x6928, symBinAddr: 0x100008048, symSize: 0x34 }
  - { offset: 0x4F8AD, size: 0x8, addend: 0x0, symName: __ZNSt8_Rb_treeISt10shared_ptrIN6engine6SpriteEES3_St9_IdentityIS3_ESt4lessIS3_ESaIS3_EE7_S_leftEPSt18_Rb_tree_node_base, symObjAddr: 0x6910, symBinAddr: 0x100008030, symSize: 0x18 }
  - { offset: 0x4F8D7, size: 0x8, addend: 0x0, symName: __ZNSt8_Rb_treeISt10shared_ptrIN6engine6SpriteEES3_St9_IdentityIS3_ESt4lessIS3_ESaIS3_EE8_S_rightEPSt18_Rb_tree_node_base, symObjAddr: 0x68F8, symBinAddr: 0x100008018, symSize: 0x18 }
  - { offset: 0x4F9A7, size: 0x8, addend: 0x0, symName: __ZSt8_DestroyIPSt8functionIFvvEEEvT_S4_, symObjAddr: 0x68B4, symBinAddr: 0x100007FD4, symSize: 0x44 }
  - { offset: 0x4FA51, size: 0x8, addend: 0x0, symName: __ZSt7forwardIRKSt10shared_ptrIN6engine10UI_ElementEEEOT_RNSt16remove_referenceIS6_E4typeE, symObjAddr: 0x68A0, symBinAddr: 0x100007FC0, symSize: 0x14 }
  - { offset: 0x4FA8A, size: 0x8, addend: 0x0, symName: __ZSt7forwardIRKSt10shared_ptrIN6engine6SpriteEEEOT_RNSt16remove_referenceIS6_E4typeE, symObjAddr: 0x688C, symBinAddr: 0x100007FAC, symSize: 0x14 }
  - { offset: 0x4FAC0, size: 0x8, addend: 0x0, symName: __ZNSt6vectorISt8functionIFvvEESaIS2_EE4backEv, symObjAddr: 0x6854, symBinAddr: 0x100007F74, symSize: 0x38 }
  - { offset: 0x4FAEA, size: 0x8, addend: 0x0, symName: __ZNSt6vectorISt8functionIFvvEESaIS2_EE17_M_realloc_appendIJS2_EEEvDpOT_, symObjAddr: 0x66CC, symBinAddr: 0x100007DEC, symSize: 0x188 }
  - { offset: 0x4FC71, size: 0x8, addend: 0x0, symName: __ZZNSt6vectorISt8functionIFvvEESaIS2_EE17_M_realloc_appendIJS2_EEEvDpOT_EN6_GuardC1EPS2_mRS3_, symObjAddr: 0x65F4, symBinAddr: 0x100007D14, symSize: 0x44 }
  - { offset: 0x4FCB6, size: 0x8, addend: 0x0, symName: __ZZNSt6vectorISt8functionIFvvEESaIS2_EE17_M_realloc_appendIJS2_EEEvDpOT_EN6_GuardD1Ev, symObjAddr: 0x6638, symBinAddr: 0x100007D58, symSize: 0x94 }
  - { offset: 0x4FDC2, size: 0x8, addend: 0x0, symName: __ZN9__gnu_cxxmiIPSt8functionIFvvEESt6vectorIS3_SaIS3_EEEENS_17__normal_iteratorIT_T0_E15difference_typeERKSB_SE_, symObjAddr: 0x65B4, symBinAddr: 0x100007CD4, symSize: 0x40 }
  - { offset: 0x4FE0F, size: 0x8, addend: 0x0, symName: __ZNSt6vectorISt8functionIFvvEESaIS2_EE11_S_max_sizeERKS3_, symObjAddr: 0x6580, symBinAddr: 0x100007CA0, symSize: 0x34 }
  - { offset: 0x4FE5F, size: 0x8, addend: 0x0, symName: __ZNKSt12_Vector_baseISt8functionIFvvEESaIS2_EE19_M_get_Tp_allocatorEv, symObjAddr: 0x656C, symBinAddr: 0x100007C8C, symSize: 0x14 }
  - { offset: 0x4FE89, size: 0x8, addend: 0x0, symName: __ZNKSt6vectorISt8functionIFvvEESaIS2_EE8max_sizeEv, symObjAddr: 0x654C, symBinAddr: 0x100007C6C, symSize: 0x20 }
  - { offset: 0x4FEB3, size: 0x8, addend: 0x0, symName: __ZNKSt6vectorISt8functionIFvvEESaIS2_EE12_M_check_lenEmPKc, symObjAddr: 0x647C, symBinAddr: 0x100007B9C, symSize: 0xD0 }
  - { offset: 0x4FF10, size: 0x8, addend: 0x0, symName: __ZNKSt6vectorISt8functionIFvvEESaIS2_EE4sizeEv, symObjAddr: 0x6454, symBinAddr: 0x100007B74, symSize: 0x28 }
  - { offset: 0x4FF83, size: 0x8, addend: 0x0, symName: __ZSt7forwardISt8functionIFvvEEEOT_RNSt16remove_referenceIS3_E4typeE, symObjAddr: 0x6440, symBinAddr: 0x100007B60, symSize: 0x14 }
  - { offset: 0x4FFB5, size: 0x8, addend: 0x0, symName: __ZSt8_DestroyIPSt10shared_ptrIN6engine10UI_ElementEEEvT_S5_, symObjAddr: 0x63FC, symBinAddr: 0x100007B1C, symSize: 0x44 }
  - { offset: 0x50014, size: 0x8, addend: 0x0, symName: __ZNK9__gnu_cxx17__normal_iteratorIPKSt10shared_ptrIN6engine10UI_ElementEESt6vectorIS4_SaIS4_EEE4baseEv, symObjAddr: 0x63E8, symBinAddr: 0x100007B08, symSize: 0x14 }
  - { offset: 0x50066, size: 0x8, addend: 0x0, symName: __ZN9__gnu_cxx17__normal_iteratorIPKSt10shared_ptrIN6engine10UI_ElementEESt6vectorIS4_SaIS4_EEEC1ERKS6_, symObjAddr: 0x63C0, symBinAddr: 0x100007AE0, symSize: 0x28 }
  - { offset: 0x50091, size: 0x8, addend: 0x0, symName: __ZSt8_DestroyIPSt10shared_ptrIN6engine6SpriteEEEvT_S5_, symObjAddr: 0x637C, symBinAddr: 0x100007A9C, symSize: 0x44 }
  - { offset: 0x500EC, size: 0x8, addend: 0x0, symName: __ZSt18uninitialized_copyIN9__gnu_cxx17__normal_iteratorIPKSt10shared_ptrIN6engine6SpriteEESt6vectorIS5_SaIS5_EEEEPS5_ET0_T_SE_SD_, symObjAddr: 0x6348, symBinAddr: 0x100007A68, symSize: 0x34 }
  - { offset: 0x50167, size: 0x8, addend: 0x0, symName: __ZSt16__do_uninit_copyIN9__gnu_cxx17__normal_iteratorIPKSt10shared_ptrIN6engine6SpriteEESt6vectorIS5_SaIS5_EEEEPS5_ET0_T_SE_SD_, symObjAddr: 0x62C0, symBinAddr: 0x1000079E0, symSize: 0x88 }
  - { offset: 0x501D6, size: 0x8, addend: 0x0, symName: __ZNK9__gnu_cxx17__normal_iteratorIPKSt10shared_ptrIN6engine6SpriteEESt6vectorIS4_SaIS4_EEE4baseEv, symObjAddr: 0x62AC, symBinAddr: 0x1000079CC, symSize: 0x14 }
  - { offset: 0x50203, size: 0x8, addend: 0x0, symName: __ZN9__gnu_cxxeqIPKSt10shared_ptrIN6engine6SpriteEESt6vectorIS4_SaIS4_EEEEbRKNS_17__normal_iteratorIT_T0_EESF_QrqXeqcldtfL0p_4baseEcldtfL0p0_4baseERSt14convertible_toIbEE, symObjAddr: 0x6268, symBinAddr: 0x100007988, symSize: 0x44 }
  - { offset: 0x5027C, size: 0x8, addend: 0x0, symName: __ZN9__gnu_cxx17__normal_iteratorIPKSt10shared_ptrIN6engine6SpriteEESt6vectorIS4_SaIS4_EEEC1ERKS6_, symObjAddr: 0x6240, symBinAddr: 0x100007960, symSize: 0x28 }
  - { offset: 0x502AB, size: 0x8, addend: 0x0, symName: __ZNSt12_Vector_baseISt10shared_ptrIN6engine6SpriteEESaIS3_EE17_M_create_storageEm, symObjAddr: 0x61E0, symBinAddr: 0x100007900, symSize: 0x60 }
  - { offset: 0x5030D, size: 0x8, addend: 0x0, symName: __ZNSt12_Vector_baseISt10shared_ptrIN6engine6SpriteEESaIS3_EE12_Vector_implC1ERKS4_, symObjAddr: 0x6194, symBinAddr: 0x1000078B4, symSize: 0x4C }
  - { offset: 0x503C4, size: 0x8, addend: 0x0, symName: __ZNSt14__shared_countILN9__gnu_cxx12_Lock_policyE2EEC1Ev, symObjAddr: 0x6178, symBinAddr: 0x100007898, symSize: 0x1C }
  - { offset: 0x503E6, size: 0x8, addend: 0x0, symName: __ZNSt6chrono20__duration_cast_implINS_8durationIxSt5ratioILl1ELl1000EEEES2_ILl1000ELl1EEdLb0ELb1EE6__castIdS2_ILl1ELl1EEEES4_RKNS1_IT_T0_EE, symObjAddr: 0x60F4, symBinAddr: 0x100007850, symSize: 0x48 }
  - { offset: 0x5042D, size: 0x8, addend: 0x0, symName: __ZNSt6chrono13duration_castINS_8durationIdSt5ratioILl1ELl1EEEExS2_ILl1ELl1000000000EEEENSt9enable_ifIXsrNS_13__is_durationIT_EE5valueES8_E4typeERKNS1_IT0_T1_EE, symObjAddr: 0x60C8, symBinAddr: 0x100007824, symSize: 0x2C }
  - { offset: 0x50488, size: 0x8, addend: 0x0, symName: __ZNSt6vectorISt10shared_ptrIN6engine10UI_ElementEESaIS3_EE8_M_eraseEN9__gnu_cxx17__normal_iteratorIPS3_S5_EE, symObjAddr: 0x600C, symBinAddr: 0x100007768, symSize: 0xBC }
  - { offset: 0x504EE, size: 0x8, addend: 0x0, symName: __ZNK9__gnu_cxx17__normal_iteratorIPSt10shared_ptrIN6engine10UI_ElementEESt6vectorIS4_SaIS4_EEEplEl, symObjAddr: 0x5FCC, symBinAddr: 0x100007728, symSize: 0x40 }
  - { offset: 0x5052C, size: 0x8, addend: 0x0, symName: __ZN9__gnu_cxxmiIPKSt10shared_ptrIN6engine10UI_ElementEESt6vectorIS4_SaIS4_EEEENS_17__normal_iteratorIT_T0_E15difference_typeERKSD_SG_, symObjAddr: 0x5F8C, symBinAddr: 0x1000076E8, symSize: 0x40 }
  - { offset: 0x5057D, size: 0x8, addend: 0x0, symName: __ZNKSt6vectorISt10shared_ptrIN6engine10UI_ElementEESaIS3_EE6cbeginEv, symObjAddr: 0x5F68, symBinAddr: 0x1000076C4, symSize: 0x24 }
  - { offset: 0x505A7, size: 0x8, addend: 0x0, symName: __ZNSt6vectorISt10shared_ptrIN6engine6SpriteEESaIS3_EE8_M_eraseEN9__gnu_cxx17__normal_iteratorIPS3_S5_EE, symObjAddr: 0x5EAC, symBinAddr: 0x100007608, symSize: 0xBC }
  - { offset: 0x5060D, size: 0x8, addend: 0x0, symName: __ZNK9__gnu_cxx17__normal_iteratorIPSt10shared_ptrIN6engine6SpriteEESt6vectorIS4_SaIS4_EEEplEl, symObjAddr: 0x5E6C, symBinAddr: 0x1000075C8, symSize: 0x40 }
  - { offset: 0x50644, size: 0x8, addend: 0x0, symName: __ZN9__gnu_cxxmiIPKSt10shared_ptrIN6engine6SpriteEESt6vectorIS4_SaIS4_EEEENS_17__normal_iteratorIT_T0_E15difference_typeERKSD_SG_, symObjAddr: 0x5E2C, symBinAddr: 0x100007588, symSize: 0x40 }
  - { offset: 0x50695, size: 0x8, addend: 0x0, symName: __ZNKSt6vectorISt10shared_ptrIN6engine6SpriteEESaIS3_EE6cbeginEv, symObjAddr: 0x5E08, symBinAddr: 0x100007564, symSize: 0x24 }
  - { offset: 0x506BF, size: 0x8, addend: 0x0, symName: __ZNSt8_Rb_treeISt10shared_ptrIN6engine10UI_ElementEES3_St9_IdentityIS3_ESt4lessIS3_ESaIS3_EE5clearEv, symObjAddr: 0x5DD0, symBinAddr: 0x10000752C, symSize: 0x38 }
  - { offset: 0x506E9, size: 0x8, addend: 0x0, symName: __ZNKSt13_Rb_tree_nodeISt10shared_ptrIN6engine10UI_ElementEEE9_M_valptrEv, symObjAddr: 0x5DB0, symBinAddr: 0x10000750C, symSize: 0x20 }
  - { offset: 0x50713, size: 0x8, addend: 0x0, symName: __ZNKSt8_Rb_treeISt10shared_ptrIN6engine10UI_ElementEES3_St9_IdentityIS3_ESt4lessIS3_ESaIS3_EE3endEv, symObjAddr: 0x5D88, symBinAddr: 0x1000074E4, symSize: 0x28 }
  - { offset: 0x5073D, size: 0x8, addend: 0x0, symName: __ZNKSt8_Rb_treeISt10shared_ptrIN6engine10UI_ElementEES3_St9_IdentityIS3_ESt4lessIS3_ESaIS3_EE5beginEv, symObjAddr: 0x5D60, symBinAddr: 0x1000074BC, symSize: 0x28 }
  - { offset: 0x50767, size: 0x8, addend: 0x0, symName: __ZNSt8_Rb_treeISt10shared_ptrIN6engine6SpriteEES3_St9_IdentityIS3_ESt4lessIS3_ESaIS3_EE5clearEv, symObjAddr: 0x5D28, symBinAddr: 0x100007484, symSize: 0x38 }
  - { offset: 0x50791, size: 0x8, addend: 0x0, symName: __ZNKSt13_Rb_tree_nodeISt10shared_ptrIN6engine6SpriteEEE9_M_valptrEv, symObjAddr: 0x5D08, symBinAddr: 0x100007464, symSize: 0x20 }
  - { offset: 0x507BB, size: 0x8, addend: 0x0, symName: __ZNKSt8_Rb_treeISt10shared_ptrIN6engine6SpriteEES3_St9_IdentityIS3_ESt4lessIS3_ESaIS3_EE3endEv, symObjAddr: 0x5CE0, symBinAddr: 0x10000743C, symSize: 0x28 }
  - { offset: 0x507E5, size: 0x8, addend: 0x0, symName: __ZNKSt8_Rb_treeISt10shared_ptrIN6engine6SpriteEES3_St9_IdentityIS3_ESt4lessIS3_ESaIS3_EE5beginEv, symObjAddr: 0x5CB8, symBinAddr: 0x100007414, symSize: 0x28 }
  - { offset: 0x5080F, size: 0x8, addend: 0x0, symName: __ZNSt6vectorISt8functionIFvvEESaIS2_EE15_M_erase_at_endEPS2_, symObjAddr: 0x5C30, symBinAddr: 0x10000738C, symSize: 0x88 }
  - { offset: 0x508CC, size: 0x8, addend: 0x0, symName: __ZN9__gnu_cxx17__normal_iteratorIPSt8functionIFvvEESt6vectorIS3_SaIS3_EEEC1ERKS4_, symObjAddr: 0x5C08, symBinAddr: 0x100007364, symSize: 0x28 }
  - { offset: 0x50915, size: 0x8, addend: 0x0, symName: __ZNSt10shared_ptrIN6engine6SpriteEEC1Ev, symObjAddr: 0x5BE8, symBinAddr: 0x100007344, symSize: 0x20 }
  - { offset: 0x50955, size: 0x8, addend: 0x0, symName: __ZNSt10shared_ptrIN6engine10UI_ElementEEC1Ev, symObjAddr: 0x5BC8, symBinAddr: 0x100007324, symSize: 0x20 }
  - { offset: 0x50977, size: 0x8, addend: 0x0, symName: __ZNSt17_Function_handlerIFvvEZN6engine6Engine10add_spriteESt10shared_ptrINS1_6SpriteEEEUlvE_E10_M_managerERSt9_Any_dataRKS8_St18_Manager_operation, symObjAddr: 0x5B40, symBinAddr: 0x10000729C, symSize: 0x88 }
  - { offset: 0x509C3, size: 0x8, addend: 0x0, symName: __ZNSt17_Function_handlerIFvvEZN6engine6Engine10add_spriteESt10shared_ptrINS1_6SpriteEEEUlvE_E9_M_invokeERKSt9_Any_data, symObjAddr: 0x5B1C, symBinAddr: 0x100007278, symSize: 0x24 }
  - { offset: 0x509ED, size: 0x8, addend: 0x0, symName: __ZNSt14_Function_base13_Base_managerIZN6engine6Engine10add_spriteESt10shared_ptrINS1_6SpriteEEEUlvE_E15_M_init_functorIS6_EEvRSt9_Any_dataOT_, symObjAddr: 0x5AE0, symBinAddr: 0x10000723C, symSize: 0x3C }
  - { offset: 0x50A36, size: 0x8, addend: 0x0, symName: __ZSt7forwardIZN6engine6Engine10add_spriteESt10shared_ptrINS0_6SpriteEEEUlvE_EOT_RNSt16remove_referenceIS6_E4typeE, symObjAddr: 0x5ACC, symBinAddr: 0x100007228, symSize: 0x14 }
  - { offset: 0x50A68, size: 0x8, addend: 0x0, symName: __ZNSt14_Function_base13_Base_managerIZN6engine6Engine10add_spriteESt10shared_ptrINS1_6SpriteEEEUlvE_E21_M_not_empty_functionIS6_EEbRKT_, symObjAddr: 0x5AB8, symBinAddr: 0x100007214, symSize: 0x14 }
  - { offset: 0x50A97, size: 0x8, addend: 0x0, symName: __ZNSt6vectorISt10shared_ptrIN6engine6SpriteEESaIS3_EE17_M_realloc_appendIJRKS3_EEEvDpOT_, symObjAddr: 0x5930, symBinAddr: 0x10000708C, symSize: 0x188 }
  - { offset: 0x50C1E, size: 0x8, addend: 0x0, symName: __ZZNSt6vectorISt10shared_ptrIN6engine6SpriteEESaIS3_EE17_M_realloc_appendIJRKS3_EEEvDpOT_EN6_GuardC1EPS3_mRS4_, symObjAddr: 0x5858, symBinAddr: 0x100006FB4, symSize: 0x44 }
  - { offset: 0x50C63, size: 0x8, addend: 0x0, symName: __ZZNSt6vectorISt10shared_ptrIN6engine6SpriteEESaIS3_EE17_M_realloc_appendIJRKS3_EEEvDpOT_EN6_GuardD1Ev, symObjAddr: 0x589C, symBinAddr: 0x100006FF8, symSize: 0x94 }
  - { offset: 0x50D6F, size: 0x8, addend: 0x0, symName: __ZN9__gnu_cxxmiIPSt10shared_ptrIN6engine6SpriteEESt6vectorIS4_SaIS4_EEEENS_17__normal_iteratorIT_T0_E15difference_typeERKSC_SF_, symObjAddr: 0x5818, symBinAddr: 0x100006F74, symSize: 0x40 }
  - { offset: 0x50DBC, size: 0x8, addend: 0x0, symName: __ZNSt6vectorISt10shared_ptrIN6engine6SpriteEESaIS3_EE11_S_max_sizeERKS4_, symObjAddr: 0x57E4, symBinAddr: 0x100006F40, symSize: 0x34 }
  - { offset: 0x50E0C, size: 0x8, addend: 0x0, symName: __ZNKSt6vectorISt10shared_ptrIN6engine6SpriteEESaIS3_EE8max_sizeEv, symObjAddr: 0x57C4, symBinAddr: 0x100006F20, symSize: 0x20 }
  - { offset: 0x50E36, size: 0x8, addend: 0x0, symName: __ZNKSt6vectorISt10shared_ptrIN6engine6SpriteEESaIS3_EE12_M_check_lenEmPKc, symObjAddr: 0x56F4, symBinAddr: 0x100006E50, symSize: 0xD0 }
  - { offset: 0x50ED9, size: 0x8, addend: 0x0, symName: __ZNKSt19__shared_ptr_accessIN6engine6SpriteELN9__gnu_cxx12_Lock_policyE2ELb0ELb0EE6_M_getEv, symObjAddr: 0x56D8, symBinAddr: 0x100006E34, symSize: 0x1C }
  - { offset: 0x50F2B, size: 0x8, addend: 0x0, symName: __ZN9__gnu_cxx17__normal_iteratorIPSt10shared_ptrIN6engine6SpriteEESt6vectorIS4_SaIS4_EEEC1ERKS5_, symObjAddr: 0x56B0, symBinAddr: 0x100006E0C, symSize: 0x28 }
  - { offset: 0x50F56, size: 0x8, addend: 0x0, symName: __ZNSt17_Function_handlerIFvvEZN6engine6Engine14add_ui_elementESt10shared_ptrINS1_10UI_ElementEEEUlvE_E10_M_managerERSt9_Any_dataRKS8_St18_Manager_operation, symObjAddr: 0x5628, symBinAddr: 0x100006D84, symSize: 0x88 }
  - { offset: 0x50FA2, size: 0x8, addend: 0x0, symName: __ZNSt17_Function_handlerIFvvEZN6engine6Engine14add_ui_elementESt10shared_ptrINS1_10UI_ElementEEEUlvE_E9_M_invokeERKSt9_Any_data, symObjAddr: 0x5604, symBinAddr: 0x100006D60, symSize: 0x24 }
  - { offset: 0x50FCC, size: 0x8, addend: 0x0, symName: __ZNSt14_Function_base13_Base_managerIZN6engine6Engine14add_ui_elementESt10shared_ptrINS1_10UI_ElementEEEUlvE_E15_M_init_functorIS6_EEvRSt9_Any_dataOT_, symObjAddr: 0x55C8, symBinAddr: 0x100006D24, symSize: 0x3C }
  - { offset: 0x51015, size: 0x8, addend: 0x0, symName: __ZSt7forwardIZN6engine6Engine14add_ui_elementESt10shared_ptrINS0_10UI_ElementEEEUlvE_EOT_RNSt16remove_referenceIS6_E4typeE, symObjAddr: 0x55B4, symBinAddr: 0x100006D10, symSize: 0x14 }
  - { offset: 0x51047, size: 0x8, addend: 0x0, symName: __ZNSt14_Function_base13_Base_managerIZN6engine6Engine14add_ui_elementESt10shared_ptrINS1_10UI_ElementEEEUlvE_E21_M_not_empty_functionIS6_EEbRKT_, symObjAddr: 0x55A0, symBinAddr: 0x100006CFC, symSize: 0x14 }
  - { offset: 0x51076, size: 0x8, addend: 0x0, symName: __ZNSt6vectorISt10shared_ptrIN6engine10UI_ElementEESaIS3_EE17_M_realloc_appendIJRKS3_EEEvDpOT_, symObjAddr: 0x5418, symBinAddr: 0x100006B74, symSize: 0x188 }
  - { offset: 0x511FD, size: 0x8, addend: 0x0, symName: __ZZNSt6vectorISt10shared_ptrIN6engine10UI_ElementEESaIS3_EE17_M_realloc_appendIJRKS3_EEEvDpOT_EN6_GuardC1EPS3_mRS4_, symObjAddr: 0x5340, symBinAddr: 0x100006A9C, symSize: 0x44 }
  - { offset: 0x51242, size: 0x8, addend: 0x0, symName: __ZZNSt6vectorISt10shared_ptrIN6engine10UI_ElementEESaIS3_EE17_M_realloc_appendIJRKS3_EEEvDpOT_EN6_GuardD1Ev, symObjAddr: 0x5384, symBinAddr: 0x100006AE0, symSize: 0x94 }
  - { offset: 0x5134E, size: 0x8, addend: 0x0, symName: __ZN9__gnu_cxxmiIPSt10shared_ptrIN6engine10UI_ElementEESt6vectorIS4_SaIS4_EEEENS_17__normal_iteratorIT_T0_E15difference_typeERKSC_SF_, symObjAddr: 0x5300, symBinAddr: 0x100006A5C, symSize: 0x40 }
  - { offset: 0x5139B, size: 0x8, addend: 0x0, symName: __ZNSt6vectorISt10shared_ptrIN6engine10UI_ElementEESaIS3_EE11_S_max_sizeERKS4_, symObjAddr: 0x52CC, symBinAddr: 0x100006A28, symSize: 0x34 }
  - { offset: 0x513EB, size: 0x8, addend: 0x0, symName: __ZNKSt6vectorISt10shared_ptrIN6engine10UI_ElementEESaIS3_EE8max_sizeEv, symObjAddr: 0x52AC, symBinAddr: 0x100006A08, symSize: 0x20 }
  - { offset: 0x51415, size: 0x8, addend: 0x0, symName: __ZNKSt6vectorISt10shared_ptrIN6engine10UI_ElementEESaIS3_EE12_M_check_lenEmPKc, symObjAddr: 0x51DC, symBinAddr: 0x100006938, symSize: 0xD0 }
  - { offset: 0x514B8, size: 0x8, addend: 0x0, symName: __ZNKSt19__shared_ptr_accessIN6engine10UI_ElementELN9__gnu_cxx12_Lock_policyE2ELb0ELb0EE6_M_getEv, symObjAddr: 0x51C0, symBinAddr: 0x10000691C, symSize: 0x1C }
  - { offset: 0x5150A, size: 0x8, addend: 0x0, symName: __ZN9__gnu_cxx17__normal_iteratorIPSt10shared_ptrIN6engine10UI_ElementEESt6vectorIS4_SaIS4_EEEC1ERKS5_, symObjAddr: 0x5100, symBinAddr: 0x1000068F4, symSize: 0x28 }
  - { offset: 0x51539, size: 0x8, addend: 0x0, symName: __ZNSt8_Rb_treeISt10shared_ptrIN6engine10UI_ElementEES3_St9_IdentityIS3_ESt4lessIS3_ESaIS3_EE8_M_beginEv, symObjAddr: 0x50E4, symBinAddr: 0x1000068D8, symSize: 0x1C }
  - { offset: 0x51563, size: 0x8, addend: 0x0, symName: __ZNSt8_Rb_treeISt10shared_ptrIN6engine10UI_ElementEES3_St9_IdentityIS3_ESt4lessIS3_ESaIS3_EE8_M_eraseEPSt13_Rb_tree_nodeIS3_E, symObjAddr: 0x5080, symBinAddr: 0x100006874, symSize: 0x64 }
  - { offset: 0x515DC, size: 0x8, addend: 0x0, symName: __ZNSt20_Rb_tree_key_compareISt4lessISt10shared_ptrIN6engine10UI_ElementEEEEC2Ev, symObjAddr: 0x506C, symBinAddr: 0x100006860, symSize: 0x14 }
  - { offset: 0x51618, size: 0x8, addend: 0x0, symName: __ZNSt8_Rb_treeISt10shared_ptrIN6engine6SpriteEES3_St9_IdentityIS3_ESt4lessIS3_ESaIS3_EE8_M_beginEv, symObjAddr: 0x5050, symBinAddr: 0x100006844, symSize: 0x1C }
  - { offset: 0x51642, size: 0x8, addend: 0x0, symName: __ZNSt8_Rb_treeISt10shared_ptrIN6engine6SpriteEES3_St9_IdentityIS3_ESt4lessIS3_ESaIS3_EE8_M_eraseEPSt13_Rb_tree_nodeIS3_E, symObjAddr: 0x4FEC, symBinAddr: 0x1000067E0, symSize: 0x64 }
  - { offset: 0x516BB, size: 0x8, addend: 0x0, symName: __ZNSt20_Rb_tree_key_compareISt4lessISt10shared_ptrIN6engine6SpriteEEEEC2Ev, symObjAddr: 0x4FD8, symBinAddr: 0x1000067CC, symSize: 0x14 }
  - { offset: 0x516F7, size: 0x8, addend: 0x0, symName: __ZNSt12_Vector_baseISt10shared_ptrIN6engine10UI_ElementEESaIS3_EE13_M_deallocateEPS3_m, symObjAddr: 0x4F4C, symBinAddr: 0x100006740, symSize: 0x8C }
  - { offset: 0x517E3, size: 0x8, addend: 0x0, symName: __ZNSt12_Vector_baseISt10shared_ptrIN6engine10UI_ElementEESaIS3_EE17_Vector_impl_dataC2Ev, symObjAddr: 0x4F20, symBinAddr: 0x100006714, symSize: 0x2C }
  - { offset: 0x5181F, size: 0x8, addend: 0x0, symName: __ZNSt12_Vector_baseISt10shared_ptrIN6engine6SpriteEESaIS3_EE13_M_deallocateEPS3_m, symObjAddr: 0x4E94, symBinAddr: 0x100006688, symSize: 0x8C }
  - { offset: 0x5190B, size: 0x8, addend: 0x0, symName: __ZNSt12_Vector_baseISt10shared_ptrIN6engine6SpriteEESaIS3_EE17_Vector_impl_dataC2Ev, symObjAddr: 0x4E68, symBinAddr: 0x10000665C, symSize: 0x2C }
  - { offset: 0x51982, size: 0x8, addend: 0x0, symName: __ZNSt12_Vector_baseISt8functionIFvvEESaIS2_EE19_M_get_Tp_allocatorEv, symObjAddr: 0x4E54, symBinAddr: 0x100006648, symSize: 0x14 }
  - { offset: 0x519AC, size: 0x8, addend: 0x0, symName: __ZNSt12_Vector_baseISt8functionIFvvEESaIS2_EE13_M_deallocateEPS2_m, symObjAddr: 0x4DC8, symBinAddr: 0x1000065BC, symSize: 0x8C }
  - { offset: 0x51A98, size: 0x8, addend: 0x0, symName: __ZNSt12_Vector_baseISt8functionIFvvEESaIS2_EE17_Vector_impl_dataC2Ev, symObjAddr: 0x4D9C, symBinAddr: 0x100006590, symSize: 0x2C }
  - { offset: 0x51AD4, size: 0x8, addend: 0x0, symName: __ZNSt6vectorISt8functionIFvvEESaIS2_EE12emplace_backIJS2_EEERS2_DpOT_, symObjAddr: 0x4CF8, symBinAddr: 0x1000064EC, symSize: 0xA4 }
  - { offset: 0x51B8A, size: 0x8, addend: 0x0, symName: __ZNSt12_Vector_baseISt10shared_ptrIN6engine10UI_ElementEESaIS3_EE19_M_get_Tp_allocatorEv, symObjAddr: 0x4CE4, symBinAddr: 0x1000064D8, symSize: 0x14 }
  - { offset: 0x51BB4, size: 0x8, addend: 0x0, symName: __ZNKSt12_Vector_baseISt10shared_ptrIN6engine10UI_ElementEESaIS3_EE19_M_get_Tp_allocatorEv, symObjAddr: 0x4CD0, symBinAddr: 0x1000064C4, symSize: 0x14 }
  - { offset: 0x51BDE, size: 0x8, addend: 0x0, symName: __ZNKSt6vectorISt10shared_ptrIN6engine10UI_ElementEESaIS3_EE4sizeEv, symObjAddr: 0x4CA8, symBinAddr: 0x10000649C, symSize: 0x28 }
  - { offset: 0x51C3F, size: 0x8, addend: 0x0, symName: __ZSt22__uninitialized_copy_aIN9__gnu_cxx17__normal_iteratorIPKSt10shared_ptrIN6engine6SpriteEESt6vectorIS5_SaIS5_EEEEPS5_S5_ET0_T_SE_SD_RSaIT1_E, symObjAddr: 0x4C50, symBinAddr: 0x100006444, symSize: 0x58 }
  - { offset: 0x51CB3, size: 0x8, addend: 0x0, symName: __ZNSt12_Vector_baseISt10shared_ptrIN6engine6SpriteEESaIS3_EE19_M_get_Tp_allocatorEv, symObjAddr: 0x4C3C, symBinAddr: 0x100006430, symSize: 0x14 }
  - { offset: 0x51CDD, size: 0x8, addend: 0x0, symName: __ZNKSt6vectorISt10shared_ptrIN6engine6SpriteEESaIS3_EE3endEv, symObjAddr: 0x4C14, symBinAddr: 0x100006408, symSize: 0x28 }
  - { offset: 0x51D07, size: 0x8, addend: 0x0, symName: __ZNKSt6vectorISt10shared_ptrIN6engine6SpriteEESaIS3_EE5beginEv, symObjAddr: 0x4BF0, symBinAddr: 0x1000063E4, symSize: 0x24 }
  - { offset: 0x51D67, size: 0x8, addend: 0x0, symName: __ZNSt12_Vector_baseISt10shared_ptrIN6engine6SpriteEESaIS3_EEC2EmRKS4_, symObjAddr: 0x4B9C, symBinAddr: 0x100006390, symSize: 0x54 }
  - { offset: 0x51DB4, size: 0x8, addend: 0x0, symName: __ZNKSt12_Vector_baseISt10shared_ptrIN6engine6SpriteEESaIS3_EE19_M_get_Tp_allocatorEv, symObjAddr: 0x4B88, symBinAddr: 0x10000637C, symSize: 0x14 }
  - { offset: 0x51DDE, size: 0x8, addend: 0x0, symName: __ZNKSt6vectorISt10shared_ptrIN6engine6SpriteEESaIS3_EE4sizeEv, symObjAddr: 0x4B60, symBinAddr: 0x100006354, symSize: 0x28 }
  - { offset: 0x51E08, size: 0x8, addend: 0x0, symName: __ZNKSt7__cxx1112basic_stringIcSt11char_traitsIcESaIcEE4dataEv, symObjAddr: 0x48DC, symBinAddr: 0x100006338, symSize: 0x1C }
  - { offset: 0x51E32, size: 0x8, addend: 0x0, symName: __ZNKSt6chrono8durationIxSt5ratioILl1ELl1000EEE5countEv, symObjAddr: 0x48C4, symBinAddr: 0x100006320, symSize: 0x18 }
  - { offset: 0x51E58, size: 0x8, addend: 0x0, symName: __ZNSt6chrono13duration_castINS_8durationIxSt5ratioILl1ELl1000EEEEdS2_ILl1ELl1EEEENSt9enable_ifIXsrNS_13__is_durationIT_EE5valueES8_E4typeERKNS1_IT0_T1_EE, symObjAddr: 0x48A8, symBinAddr: 0x100006304, symSize: 0x1C }
  - { offset: 0x51EAF, size: 0x8, addend: 0x0, symName: __ZNSt6chronomiIxSt5ratioILl1ELl1000000000EExS2_EENSt11common_typeIJNS_8durationIT_T0_EENS4_IT1_T2_EEEE4typeERKS7_RKSA_, symObjAddr: 0x4844, symBinAddr: 0x1000062A0, symSize: 0x64 }
  - { offset: 0x51F59, size: 0x8, addend: 0x0, symName: __ZNSt6chrono8durationIdSt5ratioILl1ELl1EEEC1IxS1_ILl1ELl1000000000EEvEERKNS0_IT_T0_EE, symObjAddr: 0x4804, symBinAddr: 0x100006260, symSize: 0x40 }
  - { offset: 0x51F9A, size: 0x8, addend: 0x0, symName: __ZNSt6vectorISt10shared_ptrIN6engine10UI_ElementEESaIS3_EE5eraseEN9__gnu_cxx17__normal_iteratorIPKS3_S5_EE, symObjAddr: 0x47B0, symBinAddr: 0x10000620C, symSize: 0x54 }
  - { offset: 0x52006, size: 0x8, addend: 0x0, symName: __ZN9__gnu_cxx17__normal_iteratorIPKSt10shared_ptrIN6engine10UI_ElementEESt6vectorIS4_SaIS4_EEEC1IPS4_vEERKNS0_IT_S9_EE, symObjAddr: 0x4780, symBinAddr: 0x1000061DC, symSize: 0x30 }
  - { offset: 0x5203E, size: 0x8, addend: 0x0, symName: __ZNKSt12__shared_ptrIN6engine10UI_ElementELN9__gnu_cxx12_Lock_policyE2EE3getEv, symObjAddr: 0x4768, symBinAddr: 0x1000061C4, symSize: 0x18 }
  - { offset: 0x52068, size: 0x8, addend: 0x0, symName: __ZNK9__gnu_cxx17__normal_iteratorIPSt10shared_ptrIN6engine10UI_ElementEESt6vectorIS4_SaIS4_EEEptEv, symObjAddr: 0x4750, symBinAddr: 0x1000061AC, symSize: 0x18 }
  - { offset: 0x52092, size: 0x8, addend: 0x0, symName: __ZNSt6vectorISt10shared_ptrIN6engine6SpriteEESaIS3_EE5eraseEN9__gnu_cxx17__normal_iteratorIPKS3_S5_EE, symObjAddr: 0x46FC, symBinAddr: 0x100006158, symSize: 0x54 }
  - { offset: 0x520FE, size: 0x8, addend: 0x0, symName: __ZN9__gnu_cxx17__normal_iteratorIPKSt10shared_ptrIN6engine6SpriteEESt6vectorIS4_SaIS4_EEEC1IPS4_vEERKNS0_IT_S9_EE, symObjAddr: 0x46CC, symBinAddr: 0x100006128, symSize: 0x30 }
  - { offset: 0x52136, size: 0x8, addend: 0x0, symName: __ZNKSt12__shared_ptrIN6engine6SpriteELN9__gnu_cxx12_Lock_policyE2EE3getEv, symObjAddr: 0x46B4, symBinAddr: 0x100006110, symSize: 0x18 }
  - { offset: 0x52160, size: 0x8, addend: 0x0, symName: __ZNK9__gnu_cxx17__normal_iteratorIPSt10shared_ptrIN6engine6SpriteEESt6vectorIS4_SaIS4_EEEptEv, symObjAddr: 0x469C, symBinAddr: 0x1000060F8, symSize: 0x18 }
  - { offset: 0x5218A, size: 0x8, addend: 0x0, symName: __ZNSt3setISt10shared_ptrIN6engine10UI_ElementEESt4lessIS3_ESaIS3_EE5clearEv, symObjAddr: 0x467C, symBinAddr: 0x1000060D8, symSize: 0x20 }
  - { offset: 0x521B4, size: 0x8, addend: 0x0, symName: __ZNKSt23_Rb_tree_const_iteratorISt10shared_ptrIN6engine10UI_ElementEEEdeEv, symObjAddr: 0x465C, symBinAddr: 0x1000060B8, symSize: 0x20 }
  - { offset: 0x521DE, size: 0x8, addend: 0x0, symName: __ZNSt23_Rb_tree_const_iteratorISt10shared_ptrIN6engine10UI_ElementEEEppEv, symObjAddr: 0x462C, symBinAddr: 0x100006088, symSize: 0x30 }
  - { offset: 0x5220B, size: 0x8, addend: 0x0, symName: __ZSteqRKSt23_Rb_tree_const_iteratorISt10shared_ptrIN6engine10UI_ElementEEES6_, symObjAddr: 0x45FC, symBinAddr: 0x100006058, symSize: 0x30 }
  - { offset: 0x5224A, size: 0x8, addend: 0x0, symName: __ZNKSt3setISt10shared_ptrIN6engine10UI_ElementEESt4lessIS3_ESaIS3_EE3endEv, symObjAddr: 0x45E0, symBinAddr: 0x10000603C, symSize: 0x1C }
  - { offset: 0x52274, size: 0x8, addend: 0x0, symName: __ZNKSt3setISt10shared_ptrIN6engine10UI_ElementEESt4lessIS3_ESaIS3_EE5beginEv, symObjAddr: 0x45C4, symBinAddr: 0x100006020, symSize: 0x1C }
  - { offset: 0x5229E, size: 0x8, addend: 0x0, symName: __ZNSt3setISt10shared_ptrIN6engine6SpriteEESt4lessIS3_ESaIS3_EE5clearEv, symObjAddr: 0x45A4, symBinAddr: 0x100006000, symSize: 0x20 }
  - { offset: 0x522C8, size: 0x8, addend: 0x0, symName: __ZNKSt23_Rb_tree_const_iteratorISt10shared_ptrIN6engine6SpriteEEEdeEv, symObjAddr: 0x4584, symBinAddr: 0x100005FE0, symSize: 0x20 }
  - { offset: 0x522F2, size: 0x8, addend: 0x0, symName: __ZNSt23_Rb_tree_const_iteratorISt10shared_ptrIN6engine6SpriteEEEppEv, symObjAddr: 0x4554, symBinAddr: 0x100005FB0, symSize: 0x30 }
  - { offset: 0x5231F, size: 0x8, addend: 0x0, symName: __ZSteqRKSt23_Rb_tree_const_iteratorISt10shared_ptrIN6engine6SpriteEEES6_, symObjAddr: 0x4524, symBinAddr: 0x100005F80, symSize: 0x30 }
  - { offset: 0x5235E, size: 0x8, addend: 0x0, symName: __ZNKSt3setISt10shared_ptrIN6engine6SpriteEESt4lessIS3_ESaIS3_EE3endEv, symObjAddr: 0x4508, symBinAddr: 0x100005F64, symSize: 0x1C }
  - { offset: 0x52388, size: 0x8, addend: 0x0, symName: __ZNKSt3setISt10shared_ptrIN6engine6SpriteEESt4lessIS3_ESaIS3_EE5beginEv, symObjAddr: 0x44EC, symBinAddr: 0x100005F48, symSize: 0x1C }
  - { offset: 0x523B2, size: 0x8, addend: 0x0, symName: __ZNSt6vectorISt8functionIFvvEESaIS2_EE5clearEv, symObjAddr: 0x44C0, symBinAddr: 0x100005F1C, symSize: 0x2C }
  - { offset: 0x523DC, size: 0x8, addend: 0x0, symName: __ZN9__gnu_cxx17__normal_iteratorIPSt8functionIFvvEESt6vectorIS3_SaIS3_EEEppEv, symObjAddr: 0x4498, symBinAddr: 0x100005EF4, symSize: 0x28 }
  - { offset: 0x52406, size: 0x8, addend: 0x0, symName: __ZNSt6vectorISt8functionIFvvEESaIS2_EE3endEv, symObjAddr: 0x4470, symBinAddr: 0x100005ECC, symSize: 0x28 }
  - { offset: 0x52430, size: 0x8, addend: 0x0, symName: __ZNSt6vectorISt8functionIFvvEESaIS2_EE5beginEv, symObjAddr: 0x444C, symBinAddr: 0x100005EA8, symSize: 0x24 }
  - { offset: 0x5245A, size: 0x8, addend: 0x0, symName: __ZNKSt8functionIFvvEEclEv, symObjAddr: 0x440C, symBinAddr: 0x100005E68, symSize: 0x40 }
  - { offset: 0x52484, size: 0x8, addend: 0x0, symName: __ZNKSt8functionIFvvEEcvbEv, symObjAddr: 0x43E8, symBinAddr: 0x100005E44, symSize: 0x24 }
  - { offset: 0x524CD, size: 0x8, addend: 0x0, symName: __ZNSt10shared_ptrIN6engine6SpriteEEC1EDn, symObjAddr: 0x43C4, symBinAddr: 0x100005E20, symSize: 0x24 }
  - { offset: 0x5251B, size: 0x8, addend: 0x0, symName: __ZNSt10shared_ptrIN6engine10UI_ElementEEC1EDn, symObjAddr: 0x43A0, symBinAddr: 0x100005DFC, symSize: 0x24 }
  - { offset: 0x5257F, size: 0x8, addend: 0x0, symName: __ZNSt8functionIFvvEEC1IZN6engine6Engine10add_spriteESt10shared_ptrINS3_6SpriteEEEUlvE_vEEOT_, symObjAddr: 0x42FC, symBinAddr: 0x100005D58, symSize: 0xA4 }
  - { offset: 0x525D9, size: 0x8, addend: 0x0, symName: __ZNSt6vectorISt10shared_ptrIN6engine6SpriteEESaIS3_EE9push_backERKS3_, symObjAddr: 0x4270, symBinAddr: 0x100005CCC, symSize: 0x8C }
  - { offset: 0x5264A, size: 0x8, addend: 0x0, symName: __ZNKSt19__shared_ptr_accessIN6engine6SpriteELN9__gnu_cxx12_Lock_policyE2ELb0ELb0EEptEv, symObjAddr: 0x4254, symBinAddr: 0x100005CB0, symSize: 0x1C }
  - { offset: 0x52674, size: 0x8, addend: 0x0, symName: __ZN9__gnu_cxx17__normal_iteratorIPSt10shared_ptrIN6engine6SpriteEESt6vectorIS4_SaIS4_EEEppEv, symObjAddr: 0x422C, symBinAddr: 0x100005C88, symSize: 0x28 }
  - { offset: 0x5269E, size: 0x8, addend: 0x0, symName: __ZNSt6vectorISt10shared_ptrIN6engine6SpriteEESaIS3_EE3endEv, symObjAddr: 0x4204, symBinAddr: 0x100005C60, symSize: 0x28 }
  - { offset: 0x526C8, size: 0x8, addend: 0x0, symName: __ZNSt6vectorISt10shared_ptrIN6engine6SpriteEESaIS3_EE5beginEv, symObjAddr: 0x41E0, symBinAddr: 0x100005C3C, symSize: 0x24 }
  - { offset: 0x526F2, size: 0x8, addend: 0x0, symName: __ZNKSt12__shared_ptrIN6engine6SpriteELN9__gnu_cxx12_Lock_policyE2EEcvbEv, symObjAddr: 0x41BC, symBinAddr: 0x100005C18, symSize: 0x24 }
  - { offset: 0x52751, size: 0x8, addend: 0x0, symName: __ZNSt8functionIFvvEEC1IZN6engine6Engine14add_ui_elementESt10shared_ptrINS3_10UI_ElementEEEUlvE_vEEOT_, symObjAddr: 0x4118, symBinAddr: 0x100005B74, symSize: 0xA4 }
  - { offset: 0x527AB, size: 0x8, addend: 0x0, symName: __ZNSt6vectorISt10shared_ptrIN6engine10UI_ElementEESaIS3_EE9push_backERKS3_, symObjAddr: 0x408C, symBinAddr: 0x100005AE8, symSize: 0x8C }
  - { offset: 0x5281C, size: 0x8, addend: 0x0, symName: __ZNKSt19__shared_ptr_accessIN6engine10UI_ElementELN9__gnu_cxx12_Lock_policyE2ELb0ELb0EEptEv, symObjAddr: 0x3FE4, symBinAddr: 0x100005ACC, symSize: 0x1C }
  - { offset: 0x52846, size: 0x8, addend: 0x0, symName: __ZN9__gnu_cxx17__normal_iteratorIPSt10shared_ptrIN6engine10UI_ElementEESt6vectorIS4_SaIS4_EEEppEv, symObjAddr: 0x3F74, symBinAddr: 0x100005AA4, symSize: 0x28 }
  - { offset: 0x52870, size: 0x8, addend: 0x0, symName: __ZNSt6vectorISt10shared_ptrIN6engine10UI_ElementEESaIS3_EE3endEv, symObjAddr: 0x3F4C, symBinAddr: 0x100005A7C, symSize: 0x28 }
  - { offset: 0x5289A, size: 0x8, addend: 0x0, symName: __ZNSt6vectorISt10shared_ptrIN6engine10UI_ElementEESaIS3_EE5beginEv, symObjAddr: 0x3F28, symBinAddr: 0x100005A58, symSize: 0x24 }
  - { offset: 0x528C4, size: 0x8, addend: 0x0, symName: __ZNKSt12__shared_ptrIN6engine10UI_ElementELN9__gnu_cxx12_Lock_policyE2EEcvbEv, symObjAddr: 0x3F04, symBinAddr: 0x100005A34, symSize: 0x24 }
  - { offset: 0x52912, size: 0x8, addend: 0x0, symName: __ZNSt8_Rb_treeISt10shared_ptrIN6engine10UI_ElementEES3_St9_IdentityIS3_ESt4lessIS3_ESaIS3_EED1Ev, symObjAddr: 0x3ED0, symBinAddr: 0x100005A00, symSize: 0x34 }
  - { offset: 0x52972, size: 0x8, addend: 0x0, symName: __ZNSt8_Rb_treeISt10shared_ptrIN6engine10UI_ElementEES3_St9_IdentityIS3_ESt4lessIS3_ESaIS3_EE13_Rb_tree_implIS7_Lb1EEC1Ev, symObjAddr: 0x3E8C, symBinAddr: 0x1000059BC, symSize: 0x44 }
  - { offset: 0x52A03, size: 0x8, addend: 0x0, symName: __ZNSt8_Rb_treeISt10shared_ptrIN6engine6SpriteEES3_St9_IdentityIS3_ESt4lessIS3_ESaIS3_EED1Ev, symObjAddr: 0x3E58, symBinAddr: 0x100005988, symSize: 0x34 }
  - { offset: 0x52A63, size: 0x8, addend: 0x0, symName: __ZNSt8_Rb_treeISt10shared_ptrIN6engine6SpriteEES3_St9_IdentityIS3_ESt4lessIS3_ESaIS3_EE13_Rb_tree_implIS7_Lb1EEC1Ev, symObjAddr: 0x3E14, symBinAddr: 0x100005944, symSize: 0x44 }
  - { offset: 0x52AF4, size: 0x8, addend: 0x0, symName: __ZNSt12_Vector_baseISt10shared_ptrIN6engine10UI_ElementEESaIS3_EED2Ev, symObjAddr: 0x3DC4, symBinAddr: 0x1000058F4, symSize: 0x50 }
  - { offset: 0x52B54, size: 0x8, addend: 0x0, symName: __ZNSt12_Vector_baseISt10shared_ptrIN6engine10UI_ElementEESaIS3_EE12_Vector_implC1EvQ26is_default_constructible_vIN9__gnu_cxx14__alloc_traitsIT0_NS9_10value_typeEE6rebindIT_E5otherEE, symObjAddr: 0x3D8C, symBinAddr: 0x1000058BC, symSize: 0x38 }
  - { offset: 0x52BE4, size: 0x8, addend: 0x0, symName: __ZNSt12_Vector_baseISt10shared_ptrIN6engine6SpriteEESaIS3_EED2Ev, symObjAddr: 0x3D3C, symBinAddr: 0x10000586C, symSize: 0x50 }
  - { offset: 0x52C44, size: 0x8, addend: 0x0, symName: __ZNSt12_Vector_baseISt10shared_ptrIN6engine6SpriteEESaIS3_EE12_Vector_implC1EvQ26is_default_constructible_vIN9__gnu_cxx14__alloc_traitsIT0_NS9_10value_typeEE6rebindIT_E5otherEE, symObjAddr: 0x3D04, symBinAddr: 0x100005834, symSize: 0x38 }
  - { offset: 0x52CD4, size: 0x8, addend: 0x0, symName: __ZNSt6vectorISt8functionIFvvEESaIS2_EED1Ev, symObjAddr: 0x3CA8, symBinAddr: 0x1000057D8, symSize: 0x5C }
  - { offset: 0x52D54, size: 0x8, addend: 0x0, symName: __ZNSt12_Vector_baseISt8functionIFvvEESaIS2_EED2Ev, symObjAddr: 0x3C58, symBinAddr: 0x100005788, symSize: 0x50 }
  - { offset: 0x52DB4, size: 0x8, addend: 0x0, symName: __ZNSt12_Vector_baseISt8functionIFvvEESaIS2_EE12_Vector_implC1EvQ26is_default_constructible_vIN9__gnu_cxx14__alloc_traitsIT0_NS8_10value_typeEE6rebindIT_E5otherEE, symObjAddr: 0x3C20, symBinAddr: 0x100005750, symSize: 0x38 }
  - { offset: 0x52E20, size: 0x8, addend: 0x0, symName: __ZNSt6vectorISt8functionIFvvEESaIS2_EE9push_backEOS2_, symObjAddr: 0x399C, symBinAddr: 0x100005720, symSize: 0x30 }
  - { offset: 0x52E5E, size: 0x8, addend: 0x0, symName: __ZSt4moveIRSt8functionIFvvEEEONSt16remove_referenceIT_E4typeEOS5_, symObjAddr: 0x3988, symBinAddr: 0x10000570C, symSize: 0x14 }
  - { offset: 0x52EB8, size: 0x8, addend: 0x0, symName: __ZNSt6vectorISt10shared_ptrIN6engine10UI_ElementEESaIS3_EED1Ev, symObjAddr: 0x392C, symBinAddr: 0x1000056B0, symSize: 0x5C }
  - { offset: 0x52F38, size: 0x8, addend: 0x0, symName: __ZNSt6vectorISt10shared_ptrIN6engine6SpriteEESaIS3_EED1Ev, symObjAddr: 0x38D0, symBinAddr: 0x100005654, symSize: 0x5C }
  - { offset: 0x52FBC, size: 0x8, addend: 0x0, symName: __ZNSt6vectorISt10shared_ptrIN6engine6SpriteEESaIS3_EEC1ERKS5_, symObjAddr: 0x37DC, symBinAddr: 0x100005560, symSize: 0xF4 }
  - { offset: 0x530CD, size: 0x8, addend: 0x0, symName: __ZNSt8functionIFvvEEC1EDn, symObjAddr: 0x37A4, symBinAddr: 0x100005528, symSize: 0x38 }
  - { offset: 0x53116, size: 0x8, addend: 0x0, symName: __ZNSt14_Function_baseC2Ev, symObjAddr: 0x3780, symBinAddr: 0x100005504, symSize: 0x24 }
  - { offset: 0x53138, size: 0x8, addend: 0x0, symName: __ZSt3maxImERKT_S2_S2_, symObjAddr: 0x3748, symBinAddr: 0x1000054CC, symSize: 0x38 }
  - { offset: 0x5317C, size: 0x8, addend: 0x0, symName: __ZSteqIcSt11char_traitsIcESaIcEEbRKNSt7__cxx1112basic_stringIT_T0_T1_EESA_, symObjAddr: 0x3694, symBinAddr: 0x10000544C, symSize: 0x80 }
  - { offset: 0x531D9, size: 0x8, addend: 0x0, symName: __ZN6engine6Engine15lock_frame_rateENSt6chrono10time_pointINS1_3_V212steady_clockENS1_8durationIxSt5ratioILl1ELl1000000000EEEEEE, symObjAddr: 0x34EC, symBinAddr: 0x1000053A8, symSize: 0xA4 }
  - { offset: 0x53262, size: 0x8, addend: 0x0, symName: __ZNSt6chronomiIdSt5ratioILl1ELl1EEdS2_EENSt11common_typeIJNS_8durationIT_T0_EENS4_IT1_T2_EEEE4typeERKS7_RKSA_, symObjAddr: 0x3478, symBinAddr: 0x100005334, symSize: 0x74 }
  - { offset: 0x532CE, size: 0x8, addend: 0x0, symName: __ZNSt6chronossIdSt5ratioILl1ELl1EEdS2_EEDaRKNS_8durationIT_T0_EERKNS3_IT1_T2_EE, symObjAddr: 0x33EC, symBinAddr: 0x1000052A8, symSize: 0x8C }
  - { offset: 0x5333E, size: 0x8, addend: 0x0, symName: __ZNKSt6chrono8durationIdSt5ratioILl1ELl1EEE5countEv, symObjAddr: 0x33D0, symBinAddr: 0x10000528C, symSize: 0x1C }
  - { offset: 0x533A0, size: 0x8, addend: 0x0, symName: __ZNSt6chrono8durationIdSt5ratioILl1ELl1EEEC1IdvEERKT_, symObjAddr: 0x33A8, symBinAddr: 0x100005264, symSize: 0x28 }
  - { offset: 0x533D8, size: 0x8, addend: 0x0, symName: __ZNKSt6chrono10time_pointINS_3_V212steady_clockENS_8durationIxSt5ratioILl1ELl1000000000EEEEE16time_since_epochEv, symObjAddr: 0x3390, symBinAddr: 0x10000524C, symSize: 0x18 }
  - { offset: 0x53405, size: 0x8, addend: 0x0, symName: __ZNSt6chronomiINS_3_V212steady_clockENS_8durationIxSt5ratioILl1ELl1000000000EEEES6_EENSt11common_typeIJT0_T1_EE4typeERKNS_10time_pointIT_S8_EERKNSC_ISD_S9_EE, symObjAddr: 0x3354, symBinAddr: 0x100005210, symSize: 0x3C }
  - { offset: 0x53462, size: 0x8, addend: 0x0, symName: __ZN6engine6Engine29delete_ui_element_from_vectorESt10shared_ptrINS_10UI_ElementEE, symObjAddr: 0x3240, symBinAddr: 0x1000050FC, symSize: 0x114 }
  - { offset: 0x534D7, size: 0x8, addend: 0x0, symName: __ZN6engine6Engine25delete_sprite_from_vectorESt10shared_ptrINS_6SpriteEE, symObjAddr: 0x312C, symBinAddr: 0x100004FE8, symSize: 0x114 }
  - { offset: 0x5354C, size: 0x8, addend: 0x0, symName: __ZN6engine6Engine16delete_scheduledEv, symObjAddr: 0x2F9C, symBinAddr: 0x100004E58, symSize: 0x190 }
  - { offset: 0x535FB, size: 0x8, addend: 0x0, symName: __ZN6engine6Engine14update_spritesEv, symObjAddr: 0x2ECC, symBinAddr: 0x100004D88, symSize: 0xD0 }
  - { offset: 0x53667, size: 0x8, addend: 0x0, symName: __ZN6engine6Engine15draw_backgroundEv, symObjAddr: 0x2DB4, symBinAddr: 0x100004C70, symSize: 0x118 }
  - { offset: 0x536B4, size: 0x8, addend: 0x0, symName: __ZN6engine6Engine21handle_creation_queueEv, symObjAddr: 0x2D2C, symBinAddr: 0x100004BE8, symSize: 0x88 }
  - { offset: 0x53728, size: 0x8, addend: 0x0, symName: __ZNK9__gnu_cxx17__normal_iteratorIPSt8functionIFvvEESt6vectorIS3_SaIS3_EEEdeEv, symObjAddr: 0x2D14, symBinAddr: 0x100004BD0, symSize: 0x18 }
  - { offset: 0x53752, size: 0x8, addend: 0x0, symName: __ZNK9__gnu_cxx17__normal_iteratorIPSt8functionIFvvEESt6vectorIS3_SaIS3_EEE4baseEv, symObjAddr: 0x2D00, symBinAddr: 0x100004BBC, symSize: 0x14 }
  - { offset: 0x53778, size: 0x8, addend: 0x0, symName: __ZN9__gnu_cxxeqIPSt8functionIFvvEESt6vectorIS3_SaIS3_EEEEbRKNS_17__normal_iteratorIT_T0_EESD_QrqXeqcldtfL0p_4baseEcldtfL0p0_4baseERSt14convertible_toIbEE, symObjAddr: 0x2CBC, symBinAddr: 0x100004B78, symSize: 0x44 }
  - { offset: 0x537CC, size: 0x8, addend: 0x0, symName: __ZN6engine6Engine8game_runEv, symObjAddr: 0x2C1C, symBinAddr: 0x100004AD8, symSize: 0xA0 }
  - { offset: 0x5381C, size: 0x8, addend: 0x0, symName: __ZN6engine6Engine11game_eventsEv, symObjAddr: 0x2910, symBinAddr: 0x1000047CC, symSize: 0x30C }
  - { offset: 0x5395F, size: 0x8, addend: 0x0, symName: __ZN6engine6Engine9game_drawEv, symObjAddr: 0x27A0, symBinAddr: 0x10000465C, symSize: 0x170 }
  - { offset: 0x53A0B, size: 0x8, addend: 0x0, symName: __ZN6engine6Engine16get_sprite_by_idENSt7__cxx1112basic_stringIcSt11char_traitsIcESaIcEEE, symObjAddr: 0x26C0, symBinAddr: 0x10000457C, symSize: 0xE0 }
  - { offset: 0x53A86, size: 0x8, addend: 0x0, symName: __ZNK9__gnu_cxx17__normal_iteratorIPSt10shared_ptrIN6engine6SpriteEESt6vectorIS4_SaIS4_EEEdeEv, symObjAddr: 0x26A8, symBinAddr: 0x100004564, symSize: 0x18 }
  - { offset: 0x53AB3, size: 0x8, addend: 0x0, symName: __ZN6engine6Engine20get_ui_element_by_idENSt7__cxx1112basic_stringIcSt11char_traitsIcESaIcEEE, symObjAddr: 0x25C8, symBinAddr: 0x100004484, symSize: 0xE0 }
  - { offset: 0x53B2E, size: 0x8, addend: 0x0, symName: __ZNK9__gnu_cxx17__normal_iteratorIPSt10shared_ptrIN6engine10UI_ElementEESt6vectorIS4_SaIS4_EEEdeEv, symObjAddr: 0x25B0, symBinAddr: 0x10000446C, symSize: 0x18 }
  - { offset: 0x53B7F, size: 0x8, addend: 0x0, symName: __ZNSt10shared_ptrIN6engine6SpriteEED1Ev, symObjAddr: 0x2250, symBinAddr: 0x10000410C, symSize: 0x20 }
  - { offset: 0x53BC4, size: 0x8, addend: 0x0, symName: __ZNSt10shared_ptrIN6engine6SpriteEEC1ERKS2_, symObjAddr: 0x2228, symBinAddr: 0x1000040E4, symSize: 0x28 }
  - { offset: 0x53C17, size: 0x8, addend: 0x0, symName: __ZNSt12__shared_ptrIN6engine6SpriteELN9__gnu_cxx12_Lock_policyE2EED1Ev, symObjAddr: 0x2204, symBinAddr: 0x1000040C0, symSize: 0x24 }
  - { offset: 0x53C41, size: 0x8, addend: 0x0, symName: __ZNSt12__shared_ptrIN6engine6SpriteELN9__gnu_cxx12_Lock_policyE2EED2Ev, symObjAddr: 0x21E0, symBinAddr: 0x10000409C, symSize: 0x24 }
  - { offset: 0x53C86, size: 0x8, addend: 0x0, symName: __ZNSt12__shared_ptrIN6engine6SpriteELN9__gnu_cxx12_Lock_policyE2EEC2ERKS4_, symObjAddr: 0x2198, symBinAddr: 0x100004054, symSize: 0x48 }
  - { offset: 0x53CB5, size: 0x8, addend: 0x0, symName: __ZNK9__gnu_cxx17__normal_iteratorIPSt10shared_ptrIN6engine6SpriteEESt6vectorIS4_SaIS4_EEE4baseEv, symObjAddr: 0x2184, symBinAddr: 0x100004040, symSize: 0x14 }
  - { offset: 0x53CDB, size: 0x8, addend: 0x0, symName: __ZN9__gnu_cxxeqIPSt10shared_ptrIN6engine6SpriteEESt6vectorIS4_SaIS4_EEEEbRKNS_17__normal_iteratorIT_T0_EESE_QrqXeqcldtfL0p_4baseEcldtfL0p0_4baseERSt14convertible_toIbEE, symObjAddr: 0x2140, symBinAddr: 0x100003FFC, symSize: 0x44 }
  - { offset: 0x53D4B, size: 0x8, addend: 0x0, symName: __ZNSt10shared_ptrIN6engine10UI_ElementEEC1ERKS2_, symObjAddr: 0x1D68, symBinAddr: 0x100003C44, symSize: 0x28 }
  - { offset: 0x53D9E, size: 0x8, addend: 0x0, symName: __ZNSt12__shared_ptrIN6engine10UI_ElementELN9__gnu_cxx12_Lock_policyE2EED1Ev, symObjAddr: 0x1D44, symBinAddr: 0x100003C20, symSize: 0x24 }
  - { offset: 0x53DE3, size: 0x8, addend: 0x0, symName: __ZNSt12__shared_ptrIN6engine10UI_ElementELN9__gnu_cxx12_Lock_policyE2EEC2ERKS4_, symObjAddr: 0x1CD8, symBinAddr: 0x100003BD8, symSize: 0x48 }
  - { offset: 0x53E12, size: 0x8, addend: 0x0, symName: __ZNK9__gnu_cxx17__normal_iteratorIPSt10shared_ptrIN6engine10UI_ElementEESt6vectorIS4_SaIS4_EEE4baseEv, symObjAddr: 0x1CC4, symBinAddr: 0x100003BC4, symSize: 0x14 }
  - { offset: 0x53E38, size: 0x8, addend: 0x0, symName: __ZN9__gnu_cxxeqIPSt10shared_ptrIN6engine10UI_ElementEESt6vectorIS4_SaIS4_EEEEbRKNS_17__normal_iteratorIT_T0_EESE_QrqXeqcldtfL0p_4baseEcldtfL0p0_4baseERSt14convertible_toIbEE, symObjAddr: 0x1C80, symBinAddr: 0x100003B80, symSize: 0x44 }
  - { offset: 0x53E8C, size: 0x8, addend: 0x0, symName: __ZN6engine6Engine13out_of_boundsEPbS1_iiii, symObjAddr: 0x1BA0, symBinAddr: 0x100003AA0, symSize: 0xE0 }
  - { offset: 0x53F39, size: 0x8, addend: 0x0, symName: __ZN6engine6Engine8set_fontENSt7__cxx1112basic_stringIcSt11char_traitsIcESaIcEEEf, symObjAddr: 0x1B64, symBinAddr: 0x100003A64, symSize: 0x3C }
  - { offset: 0x53F87, size: 0x8, addend: 0x0, symName: __ZN6engine6Engine14set_backgroundENSt7__cxx1112basic_stringIcSt11char_traitsIcESaIcEEEf, symObjAddr: 0x1B08, symBinAddr: 0x100003A08, symSize: 0x5C }
  - { offset: 0x53FF9, size: 0x8, addend: 0x0, symName: __ZN6engine6EngineD1Ev, symObjAddr: 0x1A70, symBinAddr: 0x100003970, symSize: 0x98 }
  - { offset: 0x54023, size: 0x8, addend: 0x0, symName: __ZN6engine6EngineD2Ev, symObjAddr: 0x19D8, symBinAddr: 0x1000038D8, symSize: 0x98 }
  - { offset: 0x54066, size: 0x8, addend: 0x0, symName: __ZN6engine6EngineC1Ev, symObjAddr: 0x185C, symBinAddr: 0x10000375C, symSize: 0x17C }
  - { offset: 0x54090, size: 0x8, addend: 0x0, symName: __ZN6engine6EngineC2Ev, symObjAddr: 0x16E0, symBinAddr: 0x1000035E0, symSize: 0x17C }
  - { offset: 0x540DA, size: 0x8, addend: 0x0, symName: __ZNSt3setISt10shared_ptrIN6engine10UI_ElementEESt4lessIS3_ESaIS3_EED1Ev, symObjAddr: 0x16C0, symBinAddr: 0x1000035C0, symSize: 0x20 }
  - { offset: 0x5411A, size: 0x8, addend: 0x0, symName: __ZNSt3setISt10shared_ptrIN6engine10UI_ElementEESt4lessIS3_ESaIS3_EEC1Ev, symObjAddr: 0x16A0, symBinAddr: 0x1000035A0, symSize: 0x20 }
  - { offset: 0x5415A, size: 0x8, addend: 0x0, symName: __ZNSt8_Rb_treeISt10shared_ptrIN6engine10UI_ElementEES3_St9_IdentityIS3_ESt4lessIS3_ESaIS3_EEC1Ev, symObjAddr: 0x1680, symBinAddr: 0x100003580, symSize: 0x20 }
  - { offset: 0x541A8, size: 0x8, addend: 0x0, symName: __ZNSt8_Rb_treeISt10shared_ptrIN6engine10UI_ElementEES3_St9_IdentityIS3_ESt4lessIS3_ESaIS3_EE13_Rb_tree_implIS7_Lb1EED1Ev, symObjAddr: 0x1660, symBinAddr: 0x100003560, symSize: 0x20 }
  - { offset: 0x54216, size: 0x8, addend: 0x0, symName: __ZNSt3setISt10shared_ptrIN6engine6SpriteEESt4lessIS3_ESaIS3_EED1Ev, symObjAddr: 0x1640, symBinAddr: 0x100003540, symSize: 0x20 }
  - { offset: 0x54256, size: 0x8, addend: 0x0, symName: __ZNSt3setISt10shared_ptrIN6engine6SpriteEESt4lessIS3_ESaIS3_EEC1Ev, symObjAddr: 0x1620, symBinAddr: 0x100003520, symSize: 0x20 }
  - { offset: 0x54296, size: 0x8, addend: 0x0, symName: __ZNSt8_Rb_treeISt10shared_ptrIN6engine6SpriteEES3_St9_IdentityIS3_ESt4lessIS3_ESaIS3_EEC1Ev, symObjAddr: 0x1600, symBinAddr: 0x100003500, symSize: 0x20 }
  - { offset: 0x542E4, size: 0x8, addend: 0x0, symName: __ZNSt8_Rb_treeISt10shared_ptrIN6engine6SpriteEES3_St9_IdentityIS3_ESt4lessIS3_ESaIS3_EE13_Rb_tree_implIS7_Lb1EED1Ev, symObjAddr: 0x15E0, symBinAddr: 0x1000034E0, symSize: 0x20 }
  - { offset: 0x54348, size: 0x8, addend: 0x0, symName: __ZNSt6vectorISt10shared_ptrIN6engine10UI_ElementEESaIS3_EEC1Ev, symObjAddr: 0x15C0, symBinAddr: 0x1000034C0, symSize: 0x20 }
  - { offset: 0x54388, size: 0x8, addend: 0x0, symName: __ZNSt12_Vector_baseISt10shared_ptrIN6engine10UI_ElementEESaIS3_EEC2Ev, symObjAddr: 0x15A0, symBinAddr: 0x1000034A0, symSize: 0x20 }
  - { offset: 0x543D5, size: 0x8, addend: 0x0, symName: __ZNSt12_Vector_baseISt10shared_ptrIN6engine10UI_ElementEESaIS3_EE12_Vector_implD1Ev, symObjAddr: 0x1580, symBinAddr: 0x100003480, symSize: 0x20 }
  - { offset: 0x54438, size: 0x8, addend: 0x0, symName: __ZNSt6vectorISt10shared_ptrIN6engine6SpriteEESaIS3_EEC1Ev, symObjAddr: 0x1560, symBinAddr: 0x100003460, symSize: 0x20 }
  - { offset: 0x54478, size: 0x8, addend: 0x0, symName: __ZNSt12_Vector_baseISt10shared_ptrIN6engine6SpriteEESaIS3_EEC2Ev, symObjAddr: 0x1540, symBinAddr: 0x100003440, symSize: 0x20 }
  - { offset: 0x544C5, size: 0x8, addend: 0x0, symName: __ZNSt12_Vector_baseISt10shared_ptrIN6engine6SpriteEESaIS3_EE12_Vector_implD1Ev, symObjAddr: 0x1520, symBinAddr: 0x100003420, symSize: 0x20 }
  - { offset: 0x54528, size: 0x8, addend: 0x0, symName: __ZNSt6vectorISt8functionIFvvEESaIS2_EEC1Ev, symObjAddr: 0x1500, symBinAddr: 0x100003400, symSize: 0x20 }
  - { offset: 0x54568, size: 0x8, addend: 0x0, symName: __ZNSt12_Vector_baseISt8functionIFvvEESaIS2_EEC2Ev, symObjAddr: 0x14E0, symBinAddr: 0x1000033E0, symSize: 0x20 }
  - { offset: 0x545B5, size: 0x8, addend: 0x0, symName: __ZNSt12_Vector_baseISt8functionIFvvEESaIS2_EE12_Vector_implD1Ev, symObjAddr: 0x14C0, symBinAddr: 0x1000033C0, symSize: 0x20 }
  - { offset: 0x545FA, size: 0x8, addend: 0x0, symName: __ZStplIcSt11char_traitsIcESaIcEENSt7__cxx1112basic_stringIT_T0_T1_EERKS8_PKS5_, symObjAddr: 0xC70, symBinAddr: 0x100003334, symSize: 0x8C }
  - { offset: 0x54671, size: 0x8, addend: 0x0, symName: __ZNSt7__cxx1112basic_stringIcSt11char_traitsIcESaIcEE13_S_copy_charsEPcPKcS7_, symObjAddr: 0xA50, symBinAddr: 0x1000032F8, symSize: 0x3C }
  - { offset: 0x54732, size: 0x8, addend: 0x0, symName: __ZNSt7__cxx1112basic_stringIcSt11char_traitsIcESaIcEE12_M_constructIPKcEEvT_S8_St20forward_iterator_tag, symObjAddr: 0x8F8, symBinAddr: 0x1000031B8, symSize: 0x140 }
  - { offset: 0x5483B, size: 0x8, addend: 0x0, symName: __ZZNSt7__cxx1112basic_stringIcSt11char_traitsIcESaIcEE12_M_constructIPKcEEvT_S8_St20forward_iterator_tagEN6_GuardC1EPS4_, symObjAddr: 0x8A0, symBinAddr: 0x100003160, symSize: 0x24 }
  - { offset: 0x5486E, size: 0x8, addend: 0x0, symName: __ZZNSt7__cxx1112basic_stringIcSt11char_traitsIcESaIcEE12_M_constructIPKcEEvT_S8_St20forward_iterator_tagEN6_GuardD1Ev, symObjAddr: 0x8C4, symBinAddr: 0x100003184, symSize: 0x34 }
  - { offset: 0x549B2, size: 0x8, addend: 0x0, symName: __ZNSt7__cxx1112basic_stringIcSt11char_traitsIcESaIcEEC1IS3_EEPKcRKS3_, symObjAddr: 0x72C, symBinAddr: 0x1000030C4, symSize: 0x9C }
  - { offset: 0x54A17, size: 0x8, addend: 0x0, symName: __ZN6engine6Engine13queue_for_addESt8functionIFvvEE, symObjAddr: 0x6EC, symBinAddr: 0x100003084, symSize: 0x40 }
  - { offset: 0x54A52, size: 0x8, addend: 0x0, symName: __ZNK6engine6Engine10get_windowEv, symObjAddr: 0x6D4, symBinAddr: 0x10000306C, symSize: 0x18 }
  - { offset: 0x54AA4, size: 0x8, addend: 0x0, symName: __ZNSt8functionIFvvEED1Ev, symObjAddr: 0x6B4, symBinAddr: 0x10000304C, symSize: 0x20 }
  - { offset: 0x54ACA, size: 0x8, addend: 0x0, symName: __ZNSt15_Rb_tree_header8_M_resetEv, symObjAddr: 0x678, symBinAddr: 0x100003010, symSize: 0x3C }
  - { offset: 0x54B0E, size: 0x8, addend: 0x0, symName: __ZNSt15_Rb_tree_headerC2Ev, symObjAddr: 0x650, symBinAddr: 0x100002FE8, symSize: 0x28 }
  - { offset: 0x54B30, size: 0x8, addend: 0x0, symName: __ZSt3minImERKT_S2_S2_, symObjAddr: 0x618, symBinAddr: 0x100002FB0, symSize: 0x38 }
  - { offset: 0x54B76, size: 0x8, addend: 0x0, symName: __ZNKSt14_Function_base8_M_emptyEv, symObjAddr: 0x5F4, symBinAddr: 0x100002F8C, symSize: 0x24 }
  - { offset: 0x54BC4, size: 0x8, addend: 0x0, symName: __ZNSt14_Function_baseD2Ev, symObjAddr: 0x5B4, symBinAddr: 0x100002F4C, symSize: 0x40 }
  - { offset: 0x54BEA, size: 0x8, addend: 0x0, symName: __ZNKSt9_Any_data9_M_accessEv, symObjAddr: 0x5A0, symBinAddr: 0x100002F38, symSize: 0x14 }
  - { offset: 0x54C14, size: 0x8, addend: 0x0, symName: __ZNSt9_Any_data9_M_accessEv, symObjAddr: 0x58C, symBinAddr: 0x100002F24, symSize: 0x14 }
  - { offset: 0x54C6F, size: 0x8, addend: 0x0, symName: __ZNSt6chrono8durationIxSt5ratioILl1ELl1000000000EEEC1IxvEERKT_, symObjAddr: 0x564, symBinAddr: 0x100002EFC, symSize: 0x28 }
  - { offset: 0x54CA7, size: 0x8, addend: 0x0, symName: __ZNKSt6chrono8durationIxSt5ratioILl1ELl1000000000EEE5countEv, symObjAddr: 0x54C, symBinAddr: 0x100002EE4, symSize: 0x18 }
  - { offset: 0x54D48, size: 0x8, addend: 0x0, symName: __ZL18__gthread_active_pv, symObjAddr: 0x284, symBinAddr: 0x100002EDC, symSize: 0x8 }
  - { offset: 0x54D60, size: 0x8, addend: 0x0, symName: __ZNSt11char_traitsIcE7compareEPKcS2_m, symObjAddr: 0xE0, symBinAddr: 0x100002DEC, symSize: 0xF0 }
  - { offset: 0x54DEA, size: 0x8, addend: 0x0, symName: __ZNSt11char_traitsIcE2ltERKcS2_, symObjAddr: 0xA8, symBinAddr: 0x100002DB4, symSize: 0x38 }
  - { offset: 0x54E25, size: 0x8, addend: 0x0, symName: __ZStltSt16partial_orderingNSt9__cmp_cat8__unspecE, symObjAddr: 0x38, symBinAddr: 0x100002D90, symSize: 0x24 }
  - { offset: 0x65A95, size: 0x8, addend: 0x0, symName: __ZNSt15_Sp_counted_ptrIPN6engine6SpriteELN9__gnu_cxx12_Lock_policyE2EE14_M_get_deleterERKSt9type_info, symObjAddr: 0x236C, symBinAddr: 0x10000B3D0, symSize: 0x18 }
  - { offset: 0x65AC8, size: 0x8, addend: 0x0, symName: __ZNSt15_Sp_counted_ptrIPN6engine6SpriteELN9__gnu_cxx12_Lock_policyE2EE10_M_destroyEv, symObjAddr: 0x2344, symBinAddr: 0x10000B3A8, symSize: 0x28 }
  - { offset: 0x65AF2, size: 0x8, addend: 0x0, symName: __ZNSt15_Sp_counted_ptrIPN6engine6SpriteELN9__gnu_cxx12_Lock_policyE2EE10_M_disposeEv, symObjAddr: 0x230C, symBinAddr: 0x10000B370, symSize: 0x38 }
  - { offset: 0x65B44, size: 0x8, addend: 0x0, symName: __ZNSt15_Sp_counted_ptrIPN6engine6SpriteELN9__gnu_cxx12_Lock_policyE2EED0Ev, symObjAddr: 0x22E4, symBinAddr: 0x10000B348, symSize: 0x28 }
  - { offset: 0x65B6E, size: 0x8, addend: 0x0, symName: __ZNSt15_Sp_counted_ptrIPN6engine6SpriteELN9__gnu_cxx12_Lock_policyE2EED1Ev, symObjAddr: 0x22B0, symBinAddr: 0x10000B314, symSize: 0x34 }
  - { offset: 0x65BBC, size: 0x8, addend: 0x0, symName: __ZNSt15_Sp_counted_ptrIPN6engine6SpriteELN9__gnu_cxx12_Lock_policyE2EEC1ES2_, symObjAddr: 0x218C, symBinAddr: 0x10000B2D0, symSize: 0x44 }
  - { offset: 0x65C1C, size: 0x8, addend: 0x0, symName: __ZNSt14__shared_countILN9__gnu_cxx12_Lock_policyE2EEC1IPN6engine6SpriteEEET_, symObjAddr: 0x20D0, symBinAddr: 0x10000B230, symSize: 0xA0 }
  - { offset: 0x65C54, size: 0x8, addend: 0x0, symName: __ZNSt12__shared_ptrIN6engine6SpriteELN9__gnu_cxx12_Lock_policyE2EE31_M_enable_shared_from_this_withIS1_S1_EENSt9enable_ifIXntsrNS4_15__has_esft_baseIT0_vEE5valueEvE4typeEPT_, symObjAddr: 0x1E64, symBinAddr: 0x10000B218, symSize: 0x18 }
  - { offset: 0x65CCF, size: 0x8, addend: 0x0, symName: __ZNSt14__shared_countILN9__gnu_cxx12_Lock_policyE2EEC1IPN6engine6SpriteEEET_St17integral_constantIbLb0EE, symObjAddr: 0x1E38, symBinAddr: 0x10000B1EC, symSize: 0x2C }
  - { offset: 0x65D41, size: 0x8, addend: 0x0, symName: __ZNSt12__shared_ptrIN6engine6SpriteELN9__gnu_cxx12_Lock_policyE2EEC2IS1_vEEPT_, symObjAddr: 0x19D0, symBinAddr: 0x10000B1A8, symSize: 0x44 }
  - { offset: 0x65DA9, size: 0x8, addend: 0x0, symName: __ZNSt10shared_ptrIN6engine6SpriteEEC1IS1_vEEPT_, symObjAddr: 0x12E4, symBinAddr: 0x10000B180, symSize: 0x28 }
  - { offset: 0x65DE1, size: 0x8, addend: 0x0, symName: __ZN6engine6Sprite12set_velocityEf, symObjAddr: 0xE4C, symBinAddr: 0x10000B15C, symSize: 0x24 }
  - { offset: 0x65E1B, size: 0x8, addend: 0x0, symName: __ZN6engine6Sprite15is_intersectingESt10shared_ptrIS0_E, symObjAddr: 0xDE0, symBinAddr: 0x10000B0F0, symSize: 0x6C }
  - { offset: 0x65E56, size: 0x8, addend: 0x0, symName: __ZN6engine6Sprite13out_of_boundsEPbS1_, symObjAddr: 0xCC8, symBinAddr: 0x10000AFD8, symSize: 0x118 }
  - { offset: 0x65EC0, size: 0x8, addend: 0x0, symName: __ZNK6engine6Sprite4drawEv, symObjAddr: 0xC74, symBinAddr: 0x10000AF84, symSize: 0x54 }
  - { offset: 0x65EEA, size: 0x8, addend: 0x0, symName: __ZN6engine6Sprite16set_sprite_imageERKNSt7__cxx1112basic_stringIcSt11char_traitsIcESaIcEEE, symObjAddr: 0xBF0, symBinAddr: 0x10000AF00, symSize: 0x84 }
  - { offset: 0x65F34, size: 0x8, addend: 0x0, symName: __ZN6engine6Sprite6updateESt6vectorISt10shared_ptrIS0_ESaIS3_EE, symObjAddr: 0xA60, symBinAddr: 0x10000AD70, symSize: 0x190 }
  - { offset: 0x65F6B, size: 0x8, addend: 0x0, symName: __ZN6engine6Sprite4makeEffffNSt7__cxx1112basic_stringIcSt11char_traitsIcESaIcEEES6_, symObjAddr: 0x8D4, symBinAddr: 0x10000ABE4, symSize: 0x18C }
  - { offset: 0x66079, size: 0x8, addend: 0x0, symName: __ZN6engine6SpriteC1EffffNSt7__cxx1112basic_stringIcSt11char_traitsIcESaIcEEES6_, symObjAddr: 0x668, symBinAddr: 0x10000AAEC, symSize: 0xF8 }
  - { offset: 0x660DC, size: 0x8, addend: 0x0, symName: __ZN6engine6SpriteC2EffffNSt7__cxx1112basic_stringIcSt11char_traitsIcESaIcEEES6_, symObjAddr: 0x570, symBinAddr: 0x10000A9F4, symSize: 0xF8 }
  - { offset: 0x6615F, size: 0x8, addend: 0x0, symName: __ZN6engine6SpriteD0Ev, symObjAddr: 0x518, symBinAddr: 0x10000A9CC, symSize: 0x28 }
  - { offset: 0x66189, size: 0x8, addend: 0x0, symName: __ZN6engine6SpriteD1Ev, symObjAddr: 0x4DC, symBinAddr: 0x10000A990, symSize: 0x3C }
  - { offset: 0x661AF, size: 0x8, addend: 0x0, symName: __ZN6engine6Sprite19on_action_key_spaceEv, symObjAddr: 0x4C8, symBinAddr: 0x10000A97C, symSize: 0x14 }
  - { offset: 0x661D9, size: 0x8, addend: 0x0, symName: __ZN6engine6Sprite18on_action_key_downEv, symObjAddr: 0x4B4, symBinAddr: 0x10000A968, symSize: 0x14 }
  - { offset: 0x66203, size: 0x8, addend: 0x0, symName: __ZN6engine6Sprite16on_action_key_upEv, symObjAddr: 0x4A0, symBinAddr: 0x10000A954, symSize: 0x14 }
  - { offset: 0x6622D, size: 0x8, addend: 0x0, symName: __ZN6engine6Sprite19on_action_key_rightEv, symObjAddr: 0x48C, symBinAddr: 0x10000A940, symSize: 0x14 }
  - { offset: 0x66257, size: 0x8, addend: 0x0, symName: __ZN6engine6Sprite18on_action_key_leftEv, symObjAddr: 0x478, symBinAddr: 0x10000A92C, symSize: 0x14 }
  - { offset: 0x662A5, size: 0x8, addend: 0x0, symName: __ZN6engine9ComponentD2Ev, symObjAddr: 0x3C8, symBinAddr: 0x10000A8F4, symSize: 0x38 }
  - { offset: 0x662CF, size: 0x8, addend: 0x0, symName: __ZL18__gthread_active_pv, symObjAddr: 0x138, symBinAddr: 0x10000A8EC, symSize: 0x8 }
  - { offset: 0x79E5B, size: 0x8, addend: 0x0, symName: __ZNSt15_Sp_counted_ptrIPN6engine10UI_ElementELN9__gnu_cxx12_Lock_policyE2EE14_M_get_deleterERKSt9type_info, symObjAddr: 0x2578, symBinAddr: 0x10000C12C, symSize: 0x18 }
  - { offset: 0x79E8E, size: 0x8, addend: 0x0, symName: __ZNSt15_Sp_counted_ptrIPN6engine10UI_ElementELN9__gnu_cxx12_Lock_policyE2EE10_M_destroyEv, symObjAddr: 0x2550, symBinAddr: 0x10000C104, symSize: 0x28 }
  - { offset: 0x79EB8, size: 0x8, addend: 0x0, symName: __ZNSt15_Sp_counted_ptrIPN6engine10UI_ElementELN9__gnu_cxx12_Lock_policyE2EE10_M_disposeEv, symObjAddr: 0x2518, symBinAddr: 0x10000C0CC, symSize: 0x38 }
  - { offset: 0x79F0A, size: 0x8, addend: 0x0, symName: __ZNSt15_Sp_counted_ptrIPN6engine10UI_ElementELN9__gnu_cxx12_Lock_policyE2EED0Ev, symObjAddr: 0x24F0, symBinAddr: 0x10000C0A4, symSize: 0x28 }
  - { offset: 0x79F34, size: 0x8, addend: 0x0, symName: __ZNSt15_Sp_counted_ptrIPN6engine10UI_ElementELN9__gnu_cxx12_Lock_policyE2EED1Ev, symObjAddr: 0x24BC, symBinAddr: 0x10000C070, symSize: 0x34 }
  - { offset: 0x79F82, size: 0x8, addend: 0x0, symName: __ZNSt15_Sp_counted_ptrIPN6engine10UI_ElementELN9__gnu_cxx12_Lock_policyE2EEC1ES2_, symObjAddr: 0x2398, symBinAddr: 0x10000C02C, symSize: 0x44 }
  - { offset: 0x79FAD, size: 0x8, addend: 0x0, symName: __ZSt11__addressofIKNSt7__cxx1112basic_stringIcSt11char_traitsIcESaIcEEEEPT_RS7_, symObjAddr: 0x2368, symBinAddr: 0x10000C018, symSize: 0x14 }
  - { offset: 0x7A014, size: 0x8, addend: 0x0, symName: __ZNSt14__shared_countILN9__gnu_cxx12_Lock_policyE2EEC1IPN6engine10UI_ElementEEET_, symObjAddr: 0x22C8, symBinAddr: 0x10000BF78, symSize: 0xA0 }
  - { offset: 0x7A050, size: 0x8, addend: 0x0, symName: __ZNSt7__cxx1112basic_stringIcSt11char_traitsIcESaIcEE9_M_assignERKS4_, symObjAddr: 0x2034, symBinAddr: 0x10000BE84, symSize: 0xF4 }
  - { offset: 0x7A134, size: 0x8, addend: 0x0, symName: __ZNSt12__shared_ptrIN6engine10UI_ElementELN9__gnu_cxx12_Lock_policyE2EE31_M_enable_shared_from_this_withIS1_S1_EENSt9enable_ifIXntsrNS4_15__has_esft_baseIT0_vEE5valueEvE4typeEPT_, symObjAddr: 0x1F80, symBinAddr: 0x10000BE6C, symSize: 0x18 }
  - { offset: 0x7A1AF, size: 0x8, addend: 0x0, symName: __ZNSt14__shared_countILN9__gnu_cxx12_Lock_policyE2EEC1IPN6engine10UI_ElementEEET_St17integral_constantIbLb0EE, symObjAddr: 0x1F54, symBinAddr: 0x10000BE40, symSize: 0x2C }
  - { offset: 0x7A1F0, size: 0x8, addend: 0x0, symName: __ZNSt7__cxx1112basic_stringIcSt11char_traitsIcESaIcEE6assignERKS4_, symObjAddr: 0x19C8, symBinAddr: 0x10000BC24, symSize: 0x21C }
  - { offset: 0x7A439, size: 0x8, addend: 0x0, symName: __ZNSt12__shared_ptrIN6engine10UI_ElementELN9__gnu_cxx12_Lock_policyE2EEC2IS1_vEEPT_, symObjAddr: 0x18EC, symBinAddr: 0x10000BBE0, symSize: 0x44 }
  - { offset: 0x7A487, size: 0x8, addend: 0x0, symName: __ZNSt7__cxx1112basic_stringIcSt11char_traitsIcESaIcEEaSERKS4_, symObjAddr: 0x128C, symBinAddr: 0x10000BBBC, symSize: 0x24 }
  - { offset: 0x7A4F2, size: 0x8, addend: 0x0, symName: __ZNSt10shared_ptrIN6engine10UI_ElementEEC1IS1_vEEPT_, symObjAddr: 0x121C, symBinAddr: 0x10000BB94, symSize: 0x28 }
  - { offset: 0x7A54E, size: 0x8, addend: 0x0, symName: __ZN6engine10UI_ElementD0Ev, symObjAddr: 0xD80, symBinAddr: 0x10000BB6C, symSize: 0x28 }
  - { offset: 0x7A578, size: 0x8, addend: 0x0, symName: __ZN6engine10UI_ElementD1Ev, symObjAddr: 0xD38, symBinAddr: 0x10000BB24, symSize: 0x48 }
  - { offset: 0x7A5A2, size: 0x8, addend: 0x0, symName: __ZN6engine10UI_ElementD2Ev, symObjAddr: 0xCF0, symBinAddr: 0x10000BADC, symSize: 0x48 }
  - { offset: 0x7A5C8, size: 0x8, addend: 0x0, symName: __ZN6engine10UI_Element9set_colorENS_5ColorE, symObjAddr: 0xCC0, symBinAddr: 0x10000BAAC, symSize: 0x30 }
  - { offset: 0x7A602, size: 0x8, addend: 0x0, symName: __ZN6engine10UI_Element14set_text_colorENS_5ColorE, symObjAddr: 0xC90, symBinAddr: 0x10000BA7C, symSize: 0x30 }
  - { offset: 0x7A63C, size: 0x8, addend: 0x0, symName: __ZN6engine10UI_Element8set_textENSt7__cxx1112basic_stringIcSt11char_traitsIcESaIcEEE, symObjAddr: 0xC5C, symBinAddr: 0x10000BA48, symSize: 0x34 }
  - { offset: 0x7A677, size: 0x8, addend: 0x0, symName: __ZN6engine10UI_Element6updateEv, symObjAddr: 0xB04, symBinAddr: 0x10000B8F0, symSize: 0x158 }
  - { offset: 0x7A726, size: 0x8, addend: 0x0, symName: __ZNK6engine10UI_Element4drawEv, symObjAddr: 0xA50, symBinAddr: 0x10000B83C, symSize: 0xB4 }
  - { offset: 0x7A81D, size: 0x8, addend: 0x0, symName: __ZN6engine10UI_ElementC1EffffNSt7__cxx1112basic_stringIcSt11char_traitsIcESaIcEEES6_, symObjAddr: 0x8FC, symBinAddr: 0x10000B6E8, symSize: 0x154 }
  - { offset: 0x7A886, size: 0x8, addend: 0x0, symName: __ZN6engine10UI_ElementC2EffffNSt7__cxx1112basic_stringIcSt11char_traitsIcESaIcEEES6_, symObjAddr: 0x7A8, symBinAddr: 0x10000B594, symSize: 0x154 }
  - { offset: 0x7A8E7, size: 0x8, addend: 0x0, symName: __ZN6engine10UI_Element4makeEffffNSt7__cxx1112basic_stringIcSt11char_traitsIcESaIcEEES6_, symObjAddr: 0x61C, symBinAddr: 0x10000B408, symSize: 0x18C }
  - { offset: 0x7A98D, size: 0x8, addend: 0x0, symName: __ZNK6engine6Engine8get_fontEv, symObjAddr: 0x490, symBinAddr: 0x10000B3F0, symSize: 0x18 }
  - { offset: 0x7AA40, size: 0x8, addend: 0x0, symName: __ZL18__gthread_active_pv, symObjAddr: 0x138, symBinAddr: 0x10000B3E8, symSize: 0x8 }
  - { offset: 0x7AA6C, size: 0x8, addend: 0x0, symName: __ZN4gamentENS_9DirectionE, symObjAddr: 0x0, symBinAddr: 0x10000C144, symSize: 0x80 }
  - { offset: 0x7AAD2, size: 0x8, addend: 0x0, symName: __ZN4gamentENS_9DirectionE, symObjAddr: 0x0, symBinAddr: 0x10000C144, symSize: 0x80 }
  - { offset: 0x90ACE, size: 0x8, addend: 0x0, symName: __Z7toupperi, symObjAddr: 0x0, symBinAddr: 0x10000C1C4, symSize: 0x1C }
  - { offset: 0x91495, size: 0x8, addend: 0x0, symName: __ZNSt8__detail31__from_chars_alnum_to_val_tableILb0EE5valueE, symObjAddr: 0x1665C, symBinAddr: 0x1000348AC, symSize: 0x0 }
  - { offset: 0x917DF, size: 0x8, addend: 0x0, symName: __ZN11constants_wL8gResPathE, symObjAddr: 0x171F0, symBinAddr: 0x100054020, symSize: 0x0 }
  - { offset: 0x917EF, size: 0x8, addend: 0x0, symName: __ZN11constants_wL6bg_strE, symObjAddr: 0xF0CE0, symBinAddr: 0x100054328, symSize: 0x0 }
  - { offset: 0x917FF, size: 0x8, addend: 0x0, symName: __ZN11constants_wL8ship_strE, symObjAddr: 0xF0D00, symBinAddr: 0x100054348, symSize: 0x0 }
  - { offset: 0x9180F, size: 0x8, addend: 0x0, symName: __ZN11constants_wL6sign_0E, symObjAddr: 0xF0D20, symBinAddr: 0x100054368, symSize: 0x0 }
  - { offset: 0x9181F, size: 0x8, addend: 0x0, symName: __ZN11constants_wL6sign_1E, symObjAddr: 0xF0D40, symBinAddr: 0x100054388, symSize: 0x0 }
  - { offset: 0x9182F, size: 0x8, addend: 0x0, symName: __ZN11constants_wL6sign_2E, symObjAddr: 0xF0D60, symBinAddr: 0x1000543A8, symSize: 0x0 }
  - { offset: 0x9183F, size: 0x8, addend: 0x0, symName: __ZN11constants_wL6sign_3E, symObjAddr: 0xF0D80, symBinAddr: 0x1000543C8, symSize: 0x0 }
  - { offset: 0x9184F, size: 0x8, addend: 0x0, symName: __ZN11constants_wL6sign_4E, symObjAddr: 0xF0DA0, symBinAddr: 0x1000543E8, symSize: 0x0 }
  - { offset: 0x9185F, size: 0x8, addend: 0x0, symName: __ZN11constants_wL6sign_5E, symObjAddr: 0xF0DC0, symBinAddr: 0x100054408, symSize: 0x0 }
  - { offset: 0x9186F, size: 0x8, addend: 0x0, symName: __ZN11constants_wL6sign_6E, symObjAddr: 0xF0DE0, symBinAddr: 0x100054428, symSize: 0x0 }
  - { offset: 0x9187F, size: 0x8, addend: 0x0, symName: __ZN11constants_wL6sign_7E, symObjAddr: 0xF0E00, symBinAddr: 0x100054448, symSize: 0x0 }
  - { offset: 0x9188F, size: 0x8, addend: 0x0, symName: __ZN11constants_wL6sign_8E, symObjAddr: 0xF0E20, symBinAddr: 0x100054468, symSize: 0x0 }
  - { offset: 0x9189F, size: 0x8, addend: 0x0, symName: __ZN11constants_wL6sign_9E, symObjAddr: 0xF0E40, symBinAddr: 0x100054488, symSize: 0x0 }
  - { offset: 0x918AF, size: 0x8, addend: 0x0, symName: __ZN11constants_wL10sample_strE, symObjAddr: 0xF0E60, symBinAddr: 0x1000544A8, symSize: 0x0 }
  - { offset: 0x918BF, size: 0x8, addend: 0x0, symName: __ZN11constants_wL10player_strE, symObjAddr: 0xF0E80, symBinAddr: 0x1000544C8, symSize: 0x0 }
  - { offset: 0x918CF, size: 0x8, addend: 0x0, symName: __ZN11constants_wL7orb_pngE, symObjAddr: 0xF0EA0, symBinAddr: 0x1000544E8, symSize: 0x0 }
  - { offset: 0x918DF, size: 0x8, addend: 0x0, symName: __ZN11constants_wL7head_upE, symObjAddr: 0xF0EC0, symBinAddr: 0x100054508, symSize: 0x0 }
  - { offset: 0x918EF, size: 0x8, addend: 0x0, symName: __ZN11constants_wL9head_downE, symObjAddr: 0xF0EE0, symBinAddr: 0x100054528, symSize: 0x0 }
  - { offset: 0x918FF, size: 0x8, addend: 0x0, symName: __ZN11constants_wL9head_leftE, symObjAddr: 0xF0F00, symBinAddr: 0x100054548, symSize: 0x0 }
  - { offset: 0x9190F, size: 0x8, addend: 0x0, symName: __ZN11constants_wL10head_rightE, symObjAddr: 0xF0F20, symBinAddr: 0x100054568, symSize: 0x0 }
  - { offset: 0x9191F, size: 0x8, addend: 0x0, symName: __ZN11constants_wL8tail_verE, symObjAddr: 0xF0F40, symBinAddr: 0x100054588, symSize: 0x0 }
  - { offset: 0x9192F, size: 0x8, addend: 0x0, symName: __ZN11constants_wL8tail_horE, symObjAddr: 0xF0F60, symBinAddr: 0x1000545A8, symSize: 0x0 }
  - { offset: 0x91A36, size: 0x8, addend: 0x0, symName: __ZN9constantsL8gResPathE, symObjAddr: 0x17210, symBinAddr: 0x100054040, symSize: 0x0 }
  - { offset: 0x91A46, size: 0x8, addend: 0x0, symName: __ZN9constantsL6bg_strE, symObjAddr: 0xF0F80, symBinAddr: 0x1000545C8, symSize: 0x0 }
  - { offset: 0x91A56, size: 0x8, addend: 0x0, symName: __ZN9constantsL8ship_strE, symObjAddr: 0xF0FA0, symBinAddr: 0x1000545E8, symSize: 0x0 }
  - { offset: 0x91A66, size: 0x8, addend: 0x0, symName: __ZN9constantsL6sign_0E, symObjAddr: 0xF0FC0, symBinAddr: 0x100054608, symSize: 0x0 }
  - { offset: 0x91A76, size: 0x8, addend: 0x0, symName: __ZN9constantsL6sign_1E, symObjAddr: 0xF0FE0, symBinAddr: 0x100054628, symSize: 0x0 }
  - { offset: 0x91A86, size: 0x8, addend: 0x0, symName: __ZN9constantsL6sign_2E, symObjAddr: 0xF1000, symBinAddr: 0x100054648, symSize: 0x0 }
  - { offset: 0x91A96, size: 0x8, addend: 0x0, symName: __ZN9constantsL6sign_3E, symObjAddr: 0xF1020, symBinAddr: 0x100054668, symSize: 0x0 }
  - { offset: 0x91AA6, size: 0x8, addend: 0x0, symName: __ZN9constantsL6sign_4E, symObjAddr: 0xF1040, symBinAddr: 0x100054688, symSize: 0x0 }
  - { offset: 0x91AB6, size: 0x8, addend: 0x0, symName: __ZN9constantsL6sign_5E, symObjAddr: 0xF1060, symBinAddr: 0x1000546A8, symSize: 0x0 }
  - { offset: 0x91AC6, size: 0x8, addend: 0x0, symName: __ZN9constantsL6sign_6E, symObjAddr: 0xF1080, symBinAddr: 0x1000546C8, symSize: 0x0 }
  - { offset: 0x91AD6, size: 0x8, addend: 0x0, symName: __ZN9constantsL6sign_7E, symObjAddr: 0xF10A0, symBinAddr: 0x1000546E8, symSize: 0x0 }
  - { offset: 0x91AE6, size: 0x8, addend: 0x0, symName: __ZN9constantsL6sign_8E, symObjAddr: 0xF10C0, symBinAddr: 0x100054708, symSize: 0x0 }
  - { offset: 0x91AF6, size: 0x8, addend: 0x0, symName: __ZN9constantsL6sign_9E, symObjAddr: 0xF10E0, symBinAddr: 0x100054728, symSize: 0x0 }
  - { offset: 0x91B06, size: 0x8, addend: 0x0, symName: __ZN9constantsL10sample_strE, symObjAddr: 0xF1100, symBinAddr: 0x100054748, symSize: 0x0 }
  - { offset: 0x91B16, size: 0x8, addend: 0x0, symName: __ZN9constantsL13standard_fontE, symObjAddr: 0xF1120, symBinAddr: 0x100054768, symSize: 0x0 }
  - { offset: 0x91E90, size: 0x8, addend: 0x0, symName: __ZStL8__ioinit, symObjAddr: 0xF1140, symBinAddr: 0x100054788, symSize: 0x0 }
  - { offset: 0x91EA7, size: 0x8, addend: 0x0, symName: __ZN4game12Food_Spawner8id_indexE, symObjAddr: 0xF1148, symBinAddr: 0x100055A28, symSize: 0x0 }
  - { offset: 0x91EBE, size: 0x8, addend: 0x0, symName: __ZN4game12Food_Spawner13frame_counterE, symObjAddr: 0xF114C, symBinAddr: 0x100055A2C, symSize: 0x0 }
  - { offset: 0x91ED5, size: 0x8, addend: 0x0, symName: __ZN4game12Food_Spawner18dynamic_spawn_timeE, symObjAddr: 0xF1150, symBinAddr: 0x100055A30, symSize: 0x0 }
  - { offset: 0x91EEC, size: 0x8, addend: 0x0, symName: __ZN4game12Food_Spawner2onE, symObjAddr: 0xF1158, symBinAddr: 0x100055A38, symSize: 0x0 }
  - { offset: 0x927EA, size: 0x8, addend: 0x0, symName: __GLOBAL__sub_I_food_spawner.cpp, symObjAddr: 0x17C88, symBinAddr: 0x10001F054, symSize: 0x14 }
  - { offset: 0x92806, size: 0x8, addend: 0x0, symName: __ZNSt5arrayIcLm4EEixEm, symObjAddr: 0x13FE8, symBinAddr: 0x10001E77C, symSize: 0x20 }
  - { offset: 0x9283C, size: 0x8, addend: 0x0, symName: __ZSt9bit_widthITkSt18__unsigned_integerjEiT_, symObjAddr: 0x13FCC, symBinAddr: 0x10001E760, symSize: 0x1C }
  - { offset: 0x92876, size: 0x8, addend: 0x0, symName: __ZSt4moveIRPKDiEONSt16remove_referenceIT_E4typeEOS4_, symObjAddr: 0x13FB8, symBinAddr: 0x10001E74C, symSize: 0x14 }
  - { offset: 0x928AC, size: 0x8, addend: 0x0, symName: __ZNKSt5arrayIcLm4EEixEm, symObjAddr: 0x13F98, symBinAddr: 0x10001E72C, symSize: 0x20 }
  - { offset: 0x928E6, size: 0x8, addend: 0x0, symName: __ZNSt9__unicode13_Utf_iteratorIDicPKDiS2_NS_5_ReplEE9_M_updateEDih, symObjAddr: 0x13CA0, symBinAddr: 0x10001E434, symSize: 0x2F8 }
  - { offset: 0x9294A, size: 0x8, addend: 0x0, symName: __ZNSt9__unicode13_Utf_iteratorIDicPKDiS2_NS_5_ReplEE8_S_errorEv, symObjAddr: 0x13C3C, symBinAddr: 0x10001E3D0, symSize: 0x64 }
  - { offset: 0x929C3, size: 0x8, addend: 0x0, symName: __ZNSt9__unicode13_Utf_iteratorIDicPKDiS2_NS_5_ReplEE6_GuardIS2_ED1Ev, symObjAddr: 0x13BFC, symBinAddr: 0x10001E390, symSize: 0x40 }
  - { offset: 0x929E5, size: 0x8, addend: 0x0, symName: __ZSt13__countl_zeroIoEiT_, symObjAddr: 0x13B64, symBinAddr: 0x10001E2F8, symSize: 0x98 }
  - { offset: 0x92AFE, size: 0x8, addend: 0x0, symName: __ZNSt9__unicode13_Utf_iteratorIcDiPKcS2_NS_5_ReplEEFeqES4_S4_Qoo16forward_iteratorIT1_ErQS5__Xnefp_fp_E, symObjAddr: 0x13B00, symBinAddr: 0x10001E294, symSize: 0x64 }
  - { offset: 0x92B3E, size: 0x8, addend: 0x0, symName: __ZSt7forwardISt17basic_string_viewIcSt11char_traitsIcEEEOT_RNSt16remove_referenceIS4_E4typeE, symObjAddr: 0x13AEC, symBinAddr: 0x10001E280, symSize: 0x14 }
  - { offset: 0x92B74, size: 0x8, addend: 0x0, symName: __ZNSt9__unicode13_Utf_iteratorIDicPKDiS2_NS_5_ReplEEppEv, symObjAddr: 0x139C0, symBinAddr: 0x10001E154, symSize: 0x12C }
  - { offset: 0x92BF6, size: 0x8, addend: 0x0, symName: __ZNKSt9__unicode13_Utf_iteratorIDicPKDiS2_NS_5_ReplEEdeEv, symObjAddr: 0x1398C, symBinAddr: 0x10001E120, symSize: 0x34 }
  - { offset: 0x92C1C, size: 0x8, addend: 0x0, symName: __ZNSt9__unicode13_Utf_iteratorIDicPKDiS2_NS_5_ReplEEFeqES4_S4_Qoo16forward_iteratorIT1_ErQS5__Xnefp_fp_E, symObjAddr: 0x13928, symBinAddr: 0x10001E0BC, symSize: 0x64 }
  - { offset: 0x92C59, size: 0x8, addend: 0x0, symName: __ZNSt9__unicode13_Utf_iteratorIDicPKDiS2_NS_5_ReplEE13_M_read_utf32Ev, symObjAddr: 0x1389C, symBinAddr: 0x10001E030, symSize: 0x8C }
  - { offset: 0x92CA8, size: 0x8, addend: 0x0, symName: __ZSt4moveIRZNKSt8__format14__formatter_fpIcE11_M_localizeESt17basic_string_viewIcSt11char_traitsIcEEcRKSt6localeEUlPcmE_EONSt16remove_referenceIT_E4typeEOSE_, symObjAddr: 0x13888, symBinAddr: 0x10001E01C, symSize: 0x14 }
  - { offset: 0x92CDA, size: 0x8, addend: 0x0, symName: __ZNSt8__detail18__to_chars_10_implIoEEvPcjT_, symObjAddr: 0x1365C, symBinAddr: 0x10001DDF0, symSize: 0x22C }
  - { offset: 0x92DA2, size: 0x8, addend: 0x0, symName: __ZSt11__bit_widthIoEiT_, symObjAddr: 0x1362C, symBinAddr: 0x10001DDC0, symSize: 0x30 }
  - { offset: 0x92E3E, size: 0x8, addend: 0x0, symName: __ZNKSt9__unicode9__v15_1_022_Grapheme_cluster_viewISt17basic_string_viewIcSt11char_traitsIcEEE9_Iterator11_M_is_breakENS0_13_Gcb_propertyES8_NS_13_Utf_iteratorIcDiPKcSB_NS_5_ReplEEE, symObjAddr: 0x13278, symBinAddr: 0x10001DA0C, symSize: 0x3B4 }
  - { offset: 0x92EE4, size: 0x8, addend: 0x0, symName: __ZNSt9__unicodeeqENS_13_Utf_iteratorIcDiPKcS2_NS_5_ReplEEES2_, symObjAddr: 0x1323C, symBinAddr: 0x10001D9D0, symSize: 0x3C }
  - { offset: 0x92F49, size: 0x8, addend: 0x0, symName: __ZNSt9__unicode9__v15_1_022_Grapheme_cluster_viewISt17basic_string_viewIcSt11char_traitsIcEEE9_IteratorC1ENS_13_Utf_iteratorIcDiPKcSA_NS_5_ReplEEE, symObjAddr: 0x13174, symBinAddr: 0x10001D908, symSize: 0xC8 }
  - { offset: 0x92FA0, size: 0x8, addend: 0x0, symName: __ZNSt9__unicode9_Utf_viewIDiSt17basic_string_viewIcSt11char_traitsIcEEEC1EOS4_, symObjAddr: 0x13144, symBinAddr: 0x10001D8D8, symSize: 0x30 }
  - { offset: 0x92FD2, size: 0x8, addend: 0x0, symName: __ZSt4moveIRSt17basic_string_viewIcSt11char_traitsIcEEEONSt16remove_referenceIT_E4typeEOS6_, symObjAddr: 0x13130, symBinAddr: 0x10001D8C4, symSize: 0x14 }
  - { offset: 0x9300B, size: 0x8, addend: 0x0, symName: __ZSt4moveIRZNKSt8__format14__formatter_fpIcE6formatIdNS0_10_Sink_iterIcEEEENSt20basic_format_contextIT0_cE8iteratorET_RS8_EUlPcmE_EONSt16remove_referenceISA_E4typeEOSA_, symObjAddr: 0x1311C, symBinAddr: 0x10001D8B0, symSize: 0x14 }
  - { offset: 0x93041, size: 0x8, addend: 0x0, symName: __ZNSt7__cxx1112basic_stringIcSt11char_traitsIcESaIcEE12_M_constructINSt9__unicode13_Utf_iteratorIDicPKDiS9_NS6_5_ReplEEEEEvT_SC_St18input_iterator_tag, symObjAddr: 0x12E88, symBinAddr: 0x10001D61C, symSize: 0x294 }
  - { offset: 0x93158, size: 0x8, addend: 0x0, symName: __ZZNSt7__cxx1112basic_stringIcSt11char_traitsIcESaIcEE12_M_constructINSt9__unicode13_Utf_iteratorIDicPKDiS9_NS6_5_ReplEEEEEvT_SC_St18input_iterator_tagEN6_GuardC1EPS4_, symObjAddr: 0x12E30, symBinAddr: 0x10001D5C4, symSize: 0x24 }
  - { offset: 0x9318B, size: 0x8, addend: 0x0, symName: __ZZNSt7__cxx1112basic_stringIcSt11char_traitsIcESaIcEE12_M_constructINSt9__unicode13_Utf_iteratorIDicPKDiS9_NS6_5_ReplEEEEEvT_SC_St18input_iterator_tagEN6_GuardD1Ev, symObjAddr: 0x12E54, symBinAddr: 0x10001D5E8, symSize: 0x34 }
  - { offset: 0x9323F, size: 0x8, addend: 0x0, symName: __ZNSt9__unicode13_Utf_iteratorIDicPKDiS2_NS_5_ReplEE7_M_readEv, symObjAddr: 0x12E10, symBinAddr: 0x10001D5A4, symSize: 0x20 }
  - { offset: 0x93269, size: 0x8, addend: 0x0, symName: __ZNSt9__unicode13_Utf_iteratorIDicPKDiS2_NS_5_ReplEE7_M_currEv, symObjAddr: 0x12DF8, symBinAddr: 0x10001D58C, symSize: 0x18 }
  - { offset: 0x932C9, size: 0x8, addend: 0x0, symName: __ZNSt9__unicode13_Utf_iteratorIDicPKDiS2_NS_5_ReplEE15_First_and_currIS2_EC1ES2_S2_, symObjAddr: 0x12DC4, symBinAddr: 0x10001D558, symSize: 0x34 }
  - { offset: 0x93320, size: 0x8, addend: 0x0, symName: __ZNK9__gnu_cxx17__normal_iteratorIPcSt4spanIcLm18446744073709551615EEEdeEv, symObjAddr: 0x12DAC, symBinAddr: 0x10001D540, symSize: 0x18 }
  - { offset: 0x9334A, size: 0x8, addend: 0x0, symName: __ZN9__gnu_cxx17__normal_iteratorIPcSt4spanIcLm18446744073709551615EEEppEi, symObjAddr: 0x12D6C, symBinAddr: 0x10001D500, symSize: 0x40 }
  - { offset: 0x9337D, size: 0x8, addend: 0x0, symName: __ZNSt7__cxx1112basic_stringIcSt11char_traitsIcESaIcEE20resize_and_overwriteIRZNKSt8__format14__formatter_fpIcE11_M_localizeESt17basic_string_viewIcS2_EcRKSt6localeEUlPcmE_EEvmT_, symObjAddr: 0x12C58, symBinAddr: 0x10001D3EC, symSize: 0x114 }
  - { offset: 0x93476, size: 0x8, addend: 0x0, symName: __ZZNSt7__cxx1112basic_stringIcSt11char_traitsIcESaIcEE20resize_and_overwriteIRZNKSt8__format14__formatter_fpIcE11_M_localizeESt17basic_string_viewIcS2_EcRKSt6localeEUlPcmE_EEvmT_EN11_TerminatorD1Ev, symObjAddr: 0x12C24, symBinAddr: 0x10001D3B8, symSize: 0x34 }
  - { offset: 0x934DD, size: 0x8, addend: 0x0, symName: __ZSt4moveIRZNKSt8__format14__formatter_fpIcE6formatIfNS0_10_Sink_iterIcEEEENSt20basic_format_contextIT0_cE8iteratorET_RS8_EUlPcmE_EONSt16remove_referenceISA_E4typeEOSA_, symObjAddr: 0x12C10, symBinAddr: 0x10001D3A4, symSize: 0x14 }
  - { offset: 0x9351E, size: 0x8, addend: 0x0, symName: __ZNKSt8__format17_WidthPrecVisitorclINSt16basic_format_argISt20basic_format_contextINS_10_Sink_iterIcEEcEE6handleEEEmRT_, symObjAddr: 0x12BF4, symBinAddr: 0x10001D388, symSize: 0x1C }
  - { offset: 0x93562, size: 0x8, addend: 0x0, symName: __ZNKSt8__format17_WidthPrecVisitorclISt17basic_string_viewIcSt11char_traitsIcEEEEmRT_, symObjAddr: 0x12BD8, symBinAddr: 0x10001D36C, symSize: 0x1C }
  - { offset: 0x935A6, size: 0x8, addend: 0x0, symName: __ZNKSt8__format17_WidthPrecVisitorclIPKcEEmRT_, symObjAddr: 0x12BBC, symBinAddr: 0x10001D350, symSize: 0x1C }
  - { offset: 0x935EA, size: 0x8, addend: 0x0, symName: __ZNKSt8__format17_WidthPrecVisitorclIcEEmRT_, symObjAddr: 0x12BA0, symBinAddr: 0x10001D334, symSize: 0x1C }
  - { offset: 0x9362A, size: 0x8, addend: 0x0, symName: __ZNSt8__detail10__to_charsIoEESt15to_chars_resultPcS2_T_i, symObjAddr: 0x129EC, symBinAddr: 0x10001D194, symSize: 0x1A0 }
  - { offset: 0x93710, size: 0x8, addend: 0x0, symName: __ZNSt8__detail12__to_chars_2IoEESt15to_chars_resultPcS2_T_, symObjAddr: 0x128E4, symBinAddr: 0x10001D08C, symSize: 0x108 }
  - { offset: 0x93798, size: 0x8, addend: 0x0, symName: __ZNSt8__detail12__to_chars_8IoEESt15to_chars_resultPcS2_T_, symObjAddr: 0x1266C, symBinAddr: 0x10001CE14, symSize: 0x278 }
  - { offset: 0x93866, size: 0x8, addend: 0x0, symName: __ZNSt8__detail13__to_chars_10IoEESt15to_chars_resultPcS2_T_, symObjAddr: 0x125D8, symBinAddr: 0x10001CD80, symSize: 0x94 }
  - { offset: 0x938D8, size: 0x8, addend: 0x0, symName: __ZNSt8__detail14__to_chars_lenIoEEjT_i, symObjAddr: 0x12444, symBinAddr: 0x10001CBEC, symSize: 0x194 }
  - { offset: 0x9395A, size: 0x8, addend: 0x0, symName: __ZNSt8__detail13__to_chars_16IoEESt15to_chars_resultPcS2_T_, symObjAddr: 0x121E4, symBinAddr: 0x10001C98C, symSize: 0x260 }
  - { offset: 0x93A42, size: 0x8, addend: 0x0, symName: __ZNSt8__detail16__to_chars_len_2IoEEjT_, symObjAddr: 0x121C8, symBinAddr: 0x10001C970, symSize: 0x1C }
  - { offset: 0x93A96, size: 0x8, addend: 0x0, symName: __ZNSt9__unicode9__v15_1_031_Grapheme_cluster_iterator_baseC2Ev, symObjAddr: 0x1219C, symBinAddr: 0x10001C944, symSize: 0x2C }
  - { offset: 0x93AB8, size: 0x8, addend: 0x0, symName: __ZNSt7__cxx1112basic_stringIcSt11char_traitsIcESaIcEE9_S_assignEPcmc, symObjAddr: 0x12144, symBinAddr: 0x10001C8EC, symSize: 0x58 }
  - { offset: 0x93B08, size: 0x8, addend: 0x0, symName: __ZNSt7__cxx1112basic_stringIcSt11char_traitsIcESaIcEE6assignEPKcm, symObjAddr: 0x12108, symBinAddr: 0x10001C8B0, symSize: 0x3C }
  - { offset: 0x93B5B, size: 0x8, addend: 0x0, symName: __ZNKSt8__format17_WidthPrecVisitorclIoEEmRT_, symObjAddr: 0x120EC, symBinAddr: 0x10001C894, symSize: 0x1C }
  - { offset: 0x93BA6, size: 0x8, addend: 0x0, symName: __ZNKSt8__format17_WidthPrecVisitorclInEEmRT_, symObjAddr: 0x120D0, symBinAddr: 0x10001C878, symSize: 0x1C }
  - { offset: 0x93BF1, size: 0x8, addend: 0x0, symName: __ZNKSt8__format17_WidthPrecVisitorclIPKvEEmRT_, symObjAddr: 0x120B4, symBinAddr: 0x10001C85C, symSize: 0x1C }
  - { offset: 0x93C3C, size: 0x8, addend: 0x0, symName: __ZNKSt8__format17_WidthPrecVisitorclIeEEmRT_, symObjAddr: 0x12098, symBinAddr: 0x10001C840, symSize: 0x1C }
  - { offset: 0x93C80, size: 0x8, addend: 0x0, symName: __ZNKSt8__format17_WidthPrecVisitorclIdEEmRT_, symObjAddr: 0x1207C, symBinAddr: 0x10001C824, symSize: 0x1C }
  - { offset: 0x93CC4, size: 0x8, addend: 0x0, symName: __ZNKSt8__format17_WidthPrecVisitorclIfEEmRT_, symObjAddr: 0x12060, symBinAddr: 0x10001C808, symSize: 0x1C }
  - { offset: 0x93D0F, size: 0x8, addend: 0x0, symName: __ZNKSt8__format17_WidthPrecVisitorclIyEEmRT_, symObjAddr: 0x12044, symBinAddr: 0x10001C7EC, symSize: 0x1C }
  - { offset: 0x93D5A, size: 0x8, addend: 0x0, symName: __ZNKSt8__format17_WidthPrecVisitorclIxEEmRT_, symObjAddr: 0x12004, symBinAddr: 0x10001C7AC, symSize: 0x40 }
  - { offset: 0x93D9E, size: 0x8, addend: 0x0, symName: __ZNKSt8__format17_WidthPrecVisitorclIjEEmRT_, symObjAddr: 0x11FE4, symBinAddr: 0x10001C78C, symSize: 0x20 }
  - { offset: 0x93DE2, size: 0x8, addend: 0x0, symName: __ZNKSt8__format17_WidthPrecVisitorclIiEEmRT_, symObjAddr: 0x11FA0, symBinAddr: 0x10001C748, symSize: 0x44 }
  - { offset: 0x93E26, size: 0x8, addend: 0x0, symName: __ZNKSt8__format17_WidthPrecVisitorclIbEEmRT_, symObjAddr: 0x11F84, symBinAddr: 0x10001C72C, symSize: 0x1C }
  - { offset: 0x93E71, size: 0x8, addend: 0x0, symName: __ZNKSt8__format17_WidthPrecVisitorclISt9monostateEEmRT_, symObjAddr: 0x11F70, symBinAddr: 0x10001C718, symSize: 0x14 }
  - { offset: 0x93EBF, size: 0x8, addend: 0x0, symName: __ZSt7forwardINSt8__format17_WidthPrecVisitorEEOT_RNSt16remove_referenceIS2_E4typeE, symObjAddr: 0x11F5C, symBinAddr: 0x10001C704, symSize: 0x14 }
  - { offset: 0x93EF1, size: 0x8, addend: 0x0, symName: __ZNSt6ranges14__copy_or_moveILb0EPcS1_NSt8__format10_Sink_iterIcEEEENSt13__conditionalIXT_EE4typeINS_13in_out_resultIT0_T2_EESB_EES9_T1_SA_, symObjAddr: 0x11EA4, symBinAddr: 0x10001C64C, symSize: 0xB8 }
  - { offset: 0x94024, size: 0x8, addend: 0x0, symName: __ZSt4moveIRPcEONSt16remove_referenceIT_E4typeEOS3_, symObjAddr: 0x11E90, symBinAddr: 0x10001C638, symSize: 0x14 }
  - { offset: 0x9405A, size: 0x8, addend: 0x0, symName: __ZNKSt9__unicode9__v15_1_022_Grapheme_cluster_viewISt17basic_string_viewIcSt11char_traitsIcEEE9_IteratoreqERKPKc, symObjAddr: 0x11E40, symBinAddr: 0x10001C5E8, symSize: 0x50 }
  - { offset: 0x94095, size: 0x8, addend: 0x0, symName: __ZNSt9__unicode9__v15_1_022_Grapheme_cluster_viewISt17basic_string_viewIcSt11char_traitsIcEEE9_IteratorppEv, symObjAddr: 0x11C88, symBinAddr: 0x10001C430, symSize: 0x1B8 }
  - { offset: 0x9413B, size: 0x8, addend: 0x0, symName: __ZNKSt9__unicode13_Utf_iteratorIcDiPKcS2_NS_5_ReplEE3endEv, symObjAddr: 0x11C70, symBinAddr: 0x10001C418, symSize: 0x18 }
  - { offset: 0x9418D, size: 0x8, addend: 0x0, symName: __ZNSt9__unicode9__v15_1_022_Grapheme_cluster_viewISt17basic_string_viewIcSt11char_traitsIcEEEC1ES5_, symObjAddr: 0x11BF4, symBinAddr: 0x10001C39C, symSize: 0x7C }
  - { offset: 0x941BE, size: 0x8, addend: 0x0, symName: __ZNSt7__cxx1112basic_stringIcSt11char_traitsIcESaIcEE20resize_and_overwriteIRZNKSt8__format14__formatter_fpIcE6formatIdNS6_10_Sink_iterIcEEEENSt20basic_format_contextIT0_cE8iteratorET_RSE_EUlPcmE_EEvmSG_, symObjAddr: 0x11AF8, symBinAddr: 0x10001C2A0, symSize: 0xFC }
  - { offset: 0x942B7, size: 0x8, addend: 0x0, symName: __ZZNSt7__cxx1112basic_stringIcSt11char_traitsIcESaIcEE20resize_and_overwriteIRZNKSt8__format14__formatter_fpIcE6formatIdNS6_10_Sink_iterIcEEEENSt20basic_format_contextIT0_cE8iteratorET_RSE_EUlPcmE_EEvmSG_EN11_TerminatorD1Ev, symObjAddr: 0x11AC4, symBinAddr: 0x10001C26C, symSize: 0x34 }
  - { offset: 0x94368, size: 0x8, addend: 0x0, symName: __ZNSt7__cxx1112basic_stringIcSt11char_traitsIcESaIcEEC1INSt9__unicode13_Utf_iteratorIDicPKDiS9_NS6_5_ReplEEEvEET_SC_RKS3_, symObjAddr: 0x119F8, symBinAddr: 0x10001C1A0, symSize: 0xCC }
  - { offset: 0x94414, size: 0x8, addend: 0x0, symName: __ZNSt9__unicode13_Utf_iteratorIDicPKDiS2_NS_5_ReplEEC1ES2_S2_S2_Q22bidirectional_iteratorIT1_E, symObjAddr: 0x1195C, symBinAddr: 0x10001C104, symSize: 0x9C }
  - { offset: 0x94451, size: 0x8, addend: 0x0, symName: __ZNSt9__unicode21__is_single_code_unitIcEEbDi, symObjAddr: 0x1193C, symBinAddr: 0x10001C0E4, symSize: 0x20 }
  - { offset: 0x94487, size: 0x8, addend: 0x0, symName: __ZNSt8__format5_SinkIcE8_M_writeEc, symObjAddr: 0x11880, symBinAddr: 0x10001C028, symSize: 0xBC }
  - { offset: 0x94527, size: 0x8, addend: 0x0, symName: __ZNSt7__cxx1112basic_stringIcSt11char_traitsIcESaIcEE20resize_and_overwriteIRZNKSt8__format14__formatter_fpIcE6formatIfNS6_10_Sink_iterIcEEEENSt20basic_format_contextIT0_cE8iteratorET_RSE_EUlPcmE_EEvmSG_, symObjAddr: 0x11784, symBinAddr: 0x10001BF2C, symSize: 0xFC }
  - { offset: 0x94620, size: 0x8, addend: 0x0, symName: __ZZNSt7__cxx1112basic_stringIcSt11char_traitsIcESaIcEE20resize_and_overwriteIRZNKSt8__format14__formatter_fpIcE6formatIfNS6_10_Sink_iterIcEEEENSt20basic_format_contextIT0_cE8iteratorET_RSE_EUlPcmE_EEvmSG_EN11_TerminatorD1Ev, symObjAddr: 0x11750, symBinAddr: 0x10001BEF8, symSize: 0x34 }
  - { offset: 0x94687, size: 0x8, addend: 0x0, symName: __ZNSt8__format14__int_from_argISt20basic_format_contextINS_10_Sink_iterIcEEcEEEmRKSt16basic_format_argIT_E, symObjAddr: 0x11718, symBinAddr: 0x10001BEC0, symSize: 0x38 }
  - { offset: 0x946BA, size: 0x8, addend: 0x0, symName: __ZSt16visit_format_argINSt8__format17_WidthPrecVisitorESt20basic_format_contextINS0_10_Sink_iterIcEEcEEDcOT_St16basic_format_argIT0_E, symObjAddr: 0x116DC, symBinAddr: 0x10001BE84, symSize: 0x3C }
  - { offset: 0x9470B, size: 0x8, addend: 0x0, symName: __ZNSt16basic_format_argISt20basic_format_contextINSt8__format10_Sink_iterIcEEcEE8_M_visitINS1_17_WidthPrecVisitorEEEDcOT_NS1_6_Arg_tE, symObjAddr: 0x113C4, symBinAddr: 0x10001BB6C, symSize: 0x318 }
  - { offset: 0x94789, size: 0x8, addend: 0x0, symName: __ZSt14__add_groupingIcEPT_S1_S0_PKcmPKS0_S5_, symObjAddr: 0x11178, symBinAddr: 0x10001B920, symSize: 0x24C }
  - { offset: 0x94881, size: 0x8, addend: 0x0, symName: __ZNSt7__cxx1112basic_stringIcSt11char_traitsIcESaIcEE6assignEPKc, symObjAddr: 0x1112C, symBinAddr: 0x10001B8D4, symSize: 0x4C }
  - { offset: 0x948BC, size: 0x8, addend: 0x0, symName: __ZNSt7__cxx1112basic_stringIcSt11char_traitsIcESaIcEE5clearEv, symObjAddr: 0x11108, symBinAddr: 0x10001B8B0, symSize: 0x24 }
  - { offset: 0x948E2, size: 0x8, addend: 0x0, symName: __ZSt11__addressofINSt7__cxx1112basic_stringIcSt11char_traitsIcESaIcEEEEPT_RS6_, symObjAddr: 0x11000, symBinAddr: 0x10001B89C, symSize: 0x14 }
  - { offset: 0x94945, size: 0x8, addend: 0x0, symName: __ZNKSt17basic_string_viewIcSt11char_traitsIcEE4copyEPcmm, symObjAddr: 0x10F6C, symBinAddr: 0x10001B808, symSize: 0x94 }
  - { offset: 0x949AF, size: 0x8, addend: 0x0, symName: __ZSt12__to_chars_iIoESt15to_chars_resultPcS1_T_i, symObjAddr: 0x10DC8, symBinAddr: 0x10001B664, symSize: 0x1A4 }
  - { offset: 0x94A55, size: 0x8, addend: 0x0, symName: __ZNSt7__cxx1112basic_stringIcSt11char_traitsIcESaIcEE14_M_replace_auxEmmmc, symObjAddr: 0x10C6C, symBinAddr: 0x10001B508, symSize: 0x15C }
  - { offset: 0x94B1B, size: 0x8, addend: 0x0, symName: __ZNSt7__cxx1112basic_stringIcSt11char_traitsIcESaIcEE9push_backEc, symObjAddr: 0x10BC8, symBinAddr: 0x10001B464, symSize: 0xA4 }
  - { offset: 0x94B67, size: 0x8, addend: 0x0, symName: __ZNSt7__cxx1112basic_stringIcSt11char_traitsIcESaIcEE6assignISt17basic_string_viewIcS2_EEENSt9enable_ifIXsrSt6__and_IJSt14is_convertibleIRKT_S7_ESt6__not_ISA_IPSC_PKS4_EESF_ISA_ISD_PKcEEEE5valueERS4_E4typeESD_, symObjAddr: 0x10B78, symBinAddr: 0x10001B414, symSize: 0x50 }
  - { offset: 0x94BB8, size: 0x8, addend: 0x0, symName: __ZSteqIcSt11char_traitsIcESaIcEEbRKNSt7__cxx1112basic_stringIT_T0_T1_EEPKS5_, symObjAddr: 0x10B04, symBinAddr: 0x10001B3A0, symSize: 0x74 }
  - { offset: 0x94C15, size: 0x8, addend: 0x0, symName: __ZSt4moveIRZNSt8__format9_Seq_sinkINSt7__cxx1112basic_stringIcSt11char_traitsIcESaIcEEEE10_M_reserveEmEUlT_T0_E_EONSt16remove_referenceIS9_E4typeEOS9_, symObjAddr: 0x10AF0, symBinAddr: 0x10001B38C, symSize: 0x14 }
  - { offset: 0x94C47, size: 0x8, addend: 0x0, symName: __ZNSt6ranges14__copy_or_moveILb0EN9__gnu_cxx17__normal_iteratorIPcSt4spanIcLm18446744073709551615EEEES6_NSt8__format10_Sink_iterIcEEEENSt13__conditionalIXT_EE4typeINS_13in_out_resultIT0_T2_EESG_EESE_T1_SF_, symObjAddr: 0x10A74, symBinAddr: 0x10001B310, symSize: 0x7C }
  - { offset: 0x94CFF, size: 0x8, addend: 0x0, symName: __ZSt4moveIRN9__gnu_cxx17__normal_iteratorIPcSt4spanIcLm18446744073709551615EEEEEONSt16remove_referenceIT_E4typeEOS8_, symObjAddr: 0x10A60, symBinAddr: 0x10001B2FC, symSize: 0x14 }
  - { offset: 0x94D31, size: 0x8, addend: 0x0, symName: __ZNSt8__format15__formatter_intIcE15_S_to_characterIoEEcT_, symObjAddr: 0x10A14, symBinAddr: 0x10001B2B0, symSize: 0x4C }
  - { offset: 0x94D64, size: 0x8, addend: 0x0, symName: __ZNSt8__format15__formatter_intIcE8to_charsIoEESt15to_chars_resultPcS4_T_i, symObjAddr: 0x109E0, symBinAddr: 0x10001B27C, symSize: 0x34 }
  - { offset: 0x94DCA, size: 0x8, addend: 0x0, symName: __ZNSt8__format15__formatter_intIcE15_S_to_characterInEEcT_, symObjAddr: 0x10994, symBinAddr: 0x10001B230, symSize: 0x4C }
  - { offset: 0x94DFD, size: 0x8, addend: 0x0, symName: __ZNSt9__unicode13__field_widthIcEEmSt17basic_string_viewIT_St11char_traitsIS2_EE, symObjAddr: 0x108DC, symBinAddr: 0x10001B178, symSize: 0xB8 }
  - { offset: 0x94E7B, size: 0x8, addend: 0x0, symName: __ZNKSt17basic_string_viewIcSt11char_traitsIcEE5emptyEv, symObjAddr: 0x108B8, symBinAddr: 0x10001B154, symSize: 0x24 }
  - { offset: 0x94EA1, size: 0x8, addend: 0x0, symName: __ZNSt9__unicode10__truncateIcEEmRSt17basic_string_viewIT_St11char_traitsIS2_EEm, symObjAddr: 0x10770, symBinAddr: 0x10001B00C, symSize: 0x148 }
  - { offset: 0x94F5A, size: 0x8, addend: 0x0, symName: __ZNKSt9__unicode9__v15_1_022_Grapheme_cluster_viewISt17basic_string_viewIcSt11char_traitsIcEEE9_Iterator4baseEv, symObjAddr: 0x10750, symBinAddr: 0x10001AFEC, symSize: 0x20 }
  - { offset: 0x94F84, size: 0x8, addend: 0x0, symName: __ZNKSt9__unicode9__v15_1_022_Grapheme_cluster_viewISt17basic_string_viewIcSt11char_traitsIcEEE9_Iterator5widthEv, symObjAddr: 0x10730, symBinAddr: 0x10001AFCC, symSize: 0x20 }
  - { offset: 0x94FB2, size: 0x8, addend: 0x0, symName: __ZNKSt9__unicode9__v15_1_022_Grapheme_cluster_viewISt17basic_string_viewIcSt11char_traitsIcEEE3endEv, symObjAddr: 0x10714, symBinAddr: 0x10001AFB0, symSize: 0x1C }
  - { offset: 0x94FE0, size: 0x8, addend: 0x0, symName: __ZNKSt9__unicode9__v15_1_022_Grapheme_cluster_viewISt17basic_string_viewIcSt11char_traitsIcEEE9_Iterator3endEv, symObjAddr: 0x106F4, symBinAddr: 0x10001AF90, symSize: 0x20 }
  - { offset: 0x9500E, size: 0x8, addend: 0x0, symName: __ZNKSt9__unicode9__v15_1_022_Grapheme_cluster_viewISt17basic_string_viewIcSt11char_traitsIcEEE5beginEv, symObjAddr: 0x106B8, symBinAddr: 0x10001AF54, symSize: 0x3C }
  - { offset: 0x9503C, size: 0x8, addend: 0x0, symName: __ZNSt9__unicode9_Utf_viewIDiSt17basic_string_viewIcSt11char_traitsIcEEE5beginEv, symObjAddr: 0x10654, symBinAddr: 0x10001AEF0, symSize: 0x64 }
  - { offset: 0x95066, size: 0x8, addend: 0x0, symName: __ZNSt9__unicode9_Utf_viewIDiSt17basic_string_viewIcSt11char_traitsIcEEE8_M_beginIPKcS8_EEDaT_T0_, symObjAddr: 0x10620, symBinAddr: 0x10001AEBC, symSize: 0x34 }
  - { offset: 0x950CF, size: 0x8, addend: 0x0, symName: __ZNKSt6ranges8__access4_EndclIRSt17basic_string_viewIcSt11char_traitsIcEEEEDaOT_, symObjAddr: 0x10600, symBinAddr: 0x10001AE9C, symSize: 0x20 }
  - { offset: 0x9511D, size: 0x8, addend: 0x0, symName: __ZNKSt6ranges8__access6_BeginclIRSt17basic_string_viewIcSt11char_traitsIcEEEEDaOT_, symObjAddr: 0x105E0, symBinAddr: 0x10001AE7C, symSize: 0x20 }
  - { offset: 0x95197, size: 0x8, addend: 0x0, symName: __ZNSt8__format14__write_paddedINS_10_Sink_iterIcEEcEET_S3_St17basic_string_viewIT0_St11char_traitsIS5_EENS_6_AlignEmDi, symObjAddr: 0x10310, symBinAddr: 0x10001ABAC, symSize: 0x2D0 }
  - { offset: 0x952EA, size: 0x8, addend: 0x0, symName: __ZZNSt8__format14__write_paddedINS_10_Sink_iterIcEEcEET_S3_St17basic_string_viewIT0_St11char_traitsIS5_EENS_6_AlignEmDiENKUlmRS2_E_clEmSA_, symObjAddr: 0x100A8, symBinAddr: 0x10001A944, symSize: 0xF8 }
  - { offset: 0x9543C, size: 0x8, addend: 0x0, symName: __ZNSt9__unicode9_Utf_viewIcRA1_KDiE3endEv, symObjAddr: 0x102A4, symBinAddr: 0x10001AB40, symSize: 0x6C }
  - { offset: 0x95466, size: 0x8, addend: 0x0, symName: __ZNSt9__unicode9_Utf_viewIcRA1_KDiE6_M_endIPS1_S6_EEDaT_T0_, symObjAddr: 0x10270, symBinAddr: 0x10001AB0C, symSize: 0x34 }
  - { offset: 0x954C8, size: 0x8, addend: 0x0, symName: __ZNSt9__unicode9_Utf_viewIcRA1_KDiE5beginEv, symObjAddr: 0x10204, symBinAddr: 0x10001AAA0, symSize: 0x6C }
  - { offset: 0x954F2, size: 0x8, addend: 0x0, symName: __ZNSt9__unicode9_Utf_viewIcRA1_KDiE8_M_beginIPS1_S6_EEDaT_T0_, symObjAddr: 0x101D0, symBinAddr: 0x10001AA6C, symSize: 0x34 }
  - { offset: 0x95578, size: 0x8, addend: 0x0, symName: __ZNSt9__unicode9_Utf_viewIcRA1_KDiEC1ES3_, symObjAddr: 0x101A0, symBinAddr: 0x10001AA3C, symSize: 0x30 }
  - { offset: 0x955A7, size: 0x8, addend: 0x0, symName: __ZNSt17basic_string_viewIcSt11char_traitsIcEE13remove_prefixEm, symObjAddr: 0x10028, symBinAddr: 0x10001A8C4, symSize: 0x80 }
  - { offset: 0x9565C, size: 0x8, addend: 0x0, symName: __ZNKSt8__format5_SpecIcE12_M_get_widthISt20basic_format_contextINS_10_Sink_iterIcEEcEEEmRT_, symObjAddr: 0xFFA0, symBinAddr: 0x10001A83C, symSize: 0x88 }
  - { offset: 0x956B1, size: 0x8, addend: 0x0, symName: __ZNKSt8__format14__formatter_fpIcE11_M_localizeB5cxx11ESt17basic_string_viewIcSt11char_traitsIcEEcRKSt6locale, symObjAddr: 0xFD9C, symBinAddr: 0x10001A638, symSize: 0x204 }
  - { offset: 0x95891, size: 0x8, addend: 0x0, symName: __ZZNKSt8__format14__formatter_fpIcE11_M_localizeB5cxx11ESt17basic_string_viewIcSt11char_traitsIcEEcRKSt6localeENKUlPcmE_clES9_m, symObjAddr: 0xFC3C, symBinAddr: 0x10001A4D8, symSize: 0x160 }
  - { offset: 0x959E0, size: 0x8, addend: 0x0, symName: __ZNKSt8__format5_SpecIcE16_M_get_precisionISt20basic_format_contextINS_10_Sink_iterIcEEcEEEmRT_, symObjAddr: 0xFBB0, symBinAddr: 0x10001A44C, symSize: 0x8C }
  - { offset: 0x95A35, size: 0x8, addend: 0x0, symName: __ZNSt8__format5_SpecIcE18_M_parse_precisionEPKcS3_RSt26basic_format_parse_contextIcE, symObjAddr: 0xFADC, symBinAddr: 0x10001A378, symSize: 0xD4 }
  - { offset: 0x95AB0, size: 0x8, addend: 0x0, symName: __ZNSt8__format15__formatter_intIcE15_S_to_characterIyEEcT_, symObjAddr: 0xFAA4, symBinAddr: 0x10001A340, symSize: 0x38 }
  - { offset: 0x95AE3, size: 0x8, addend: 0x0, symName: __ZNSt8__format15__formatter_intIcE8to_charsIyEESt15to_chars_resultPcS4_T_i, symObjAddr: 0xFA70, symBinAddr: 0x10001A30C, symSize: 0x34 }
  - { offset: 0x95B49, size: 0x8, addend: 0x0, symName: __ZNSt8__format15__formatter_intIcE15_S_to_characterIxEEcT_, symObjAddr: 0xFA2C, symBinAddr: 0x10001A2C8, symSize: 0x44 }
  - { offset: 0x95B7C, size: 0x8, addend: 0x0, symName: __ZNSt8__format15__formatter_intIcE15_S_to_characterIjEEcT_, symObjAddr: 0xF9F4, symBinAddr: 0x10001A290, symSize: 0x38 }
  - { offset: 0x95BAF, size: 0x8, addend: 0x0, symName: __ZNSt8__format15__formatter_intIcE8to_charsIjEESt15to_chars_resultPcS4_T_i, symObjAddr: 0xF9C0, symBinAddr: 0x10001A25C, symSize: 0x34 }
  - { offset: 0x95C15, size: 0x8, addend: 0x0, symName: __ZNSt8__format15__formatter_intIcE15_S_to_characterIiEEcT_, symObjAddr: 0xF97C, symBinAddr: 0x10001A218, symSize: 0x44 }
  - { offset: 0x95C57, size: 0x8, addend: 0x0, symName: __ZNKSt8__format15__formatter_intIcE13_M_format_intINS_10_Sink_iterIcEEEENSt20basic_format_contextIT_cE8iteratorESt17basic_string_viewIcSt11char_traitsIcEEmRS7_, symObjAddr: 0xF618, symBinAddr: 0x100019EB4, symSize: 0x364 }
  - { offset: 0x95DBF, size: 0x8, addend: 0x0, symName: __ZNSt8__format10__put_signIhEEPcT_NS_5_SignES1_, symObjAddr: 0xF5B8, symBinAddr: 0x100019E54, symSize: 0x60 }
  - { offset: 0x95E14, size: 0x8, addend: 0x0, symName: __ZNSt8__format15__formatter_intIcE8to_charsIhEESt15to_chars_resultPcS4_T_i, symObjAddr: 0xF57C, symBinAddr: 0x100019E18, symSize: 0x3C }
  - { offset: 0x95E7A, size: 0x8, addend: 0x0, symName: __ZNSt8__format15__formatter_intIcE15_S_to_characterIhEEcT_, symObjAddr: 0xF548, symBinAddr: 0x100019DE4, symSize: 0x34 }
  - { offset: 0x95EC7, size: 0x8, addend: 0x0, symName: __ZNSt7__cxx1112basic_stringIcSt11char_traitsIcESaIcEEaSEPKc, symObjAddr: 0xF524, symBinAddr: 0x100019DC0, symSize: 0x24 }
  - { offset: 0x95F02, size: 0x8, addend: 0x0, symName: __ZNSt7__cxx1112basic_stringIcSt11char_traitsIcESaIcEEaSEOS4_, symObjAddr: 0xF280, symBinAddr: 0x100019B1C, symSize: 0x2A4 }
  - { offset: 0x96034, size: 0x8, addend: 0x0, symName: __ZNSt20basic_format_contextINSt8__format10_Sink_iterIcEEcE6localeEv, symObjAddr: 0xF244, symBinAddr: 0x100019AE0, symSize: 0x3C }
  - { offset: 0x9605E, size: 0x8, addend: 0x0, symName: __ZNSt8__format5_SinkIcE8_M_writeESt17basic_string_viewIcSt11char_traitsIcEE, symObjAddr: 0xF080, symBinAddr: 0x10001991C, symSize: 0x1C4 }
  - { offset: 0x960EF, size: 0x8, addend: 0x0, symName: __ZNSt8__format10__put_signIoEEPcT_NS_5_SignES1_, symObjAddr: 0xF020, symBinAddr: 0x1000198BC, symSize: 0x60 }
  - { offset: 0x96144, size: 0x8, addend: 0x0, symName: __ZNSt8__format10__put_signInEEPcT_NS_5_SignES1_, symObjAddr: 0xEFA4, symBinAddr: 0x100019840, symSize: 0x7C }
  - { offset: 0x961A0, size: 0x8, addend: 0x0, symName: __ZSt7forwardIRA1_KDiEOT_RNSt16remove_referenceIS3_E4typeE, symObjAddr: 0xEF90, symBinAddr: 0x10001982C, symSize: 0x14 }
  - { offset: 0x961D6, size: 0x8, addend: 0x0, symName: __ZNKSt6ranges8__access4_EndclIRA1_KDiEEDaOT_, symObjAddr: 0xEF74, symBinAddr: 0x100019810, symSize: 0x1C }
  - { offset: 0x96219, size: 0x8, addend: 0x0, symName: __ZNKSt6ranges8__access6_BeginclIRA1_KDiEEDaOT_, symObjAddr: 0xEF5C, symBinAddr: 0x1000197F8, symSize: 0x18 }
  - { offset: 0x9625C, size: 0x8, addend: 0x0, symName: __ZNSt7__cxx1112basic_stringIcSt11char_traitsIcESaIcEEixEm, symObjAddr: 0xEEF4, symBinAddr: 0x100019790, symSize: 0x68 }
  - { offset: 0x962B1, size: 0x8, addend: 0x0, symName: __ZNSt7__cxx1112basic_stringIcSt11char_traitsIcESaIcEE6insertEmmc, symObjAddr: 0xEEA0, symBinAddr: 0x10001973C, symSize: 0x54 }
  - { offset: 0x9630E, size: 0x8, addend: 0x0, symName: __ZNSt7__cxx1112basic_stringIcSt11char_traitsIcESaIcEE6appendISt17basic_string_viewIcS2_EEENSt9enable_ifIXsrSt6__and_IJSt14is_convertibleIRKT_S7_ESt6__not_ISA_IPSC_PKS4_EESF_ISA_ISD_PKcEEEE5valueERS4_E4typeESD_, symObjAddr: 0xEE50, symBinAddr: 0x1000196EC, symSize: 0x50 }
  - { offset: 0x96363, size: 0x8, addend: 0x0, symName: __ZNSt7__cxx1112basic_stringIcSt11char_traitsIcESaIcEE6appendEmc, symObjAddr: 0xEE0C, symBinAddr: 0x1000196A8, symSize: 0x44 }
  - { offset: 0x963AF, size: 0x8, addend: 0x0, symName: __ZNSt7__cxx1112basic_stringIcSt11char_traitsIcESaIcEEpLEc, symObjAddr: 0xEDDC, symBinAddr: 0x100019678, symSize: 0x30 }
  - { offset: 0x963EA, size: 0x8, addend: 0x0, symName: __ZNSt7__cxx1112basic_stringIcSt11char_traitsIcESaIcEEaSISt17basic_string_viewIcS2_EEENSt9enable_ifIXsrSt6__and_IJSt14is_convertibleIRKT_S7_ESt6__not_ISA_IPSC_PKS4_EESF_ISA_ISD_PKcEEEE5valueERS4_E4typeESD_, symObjAddr: 0xEDB8, symBinAddr: 0x100019654, symSize: 0x24 }
  - { offset: 0x9642E, size: 0x8, addend: 0x0, symName: __ZNKSt17basic_string_viewIcSt11char_traitsIcEE6substrEmm, symObjAddr: 0xED30, symBinAddr: 0x1000195CC, symSize: 0x88 }
  - { offset: 0x9648E, size: 0x8, addend: 0x0, symName: __ZNKSt17basic_string_viewIcSt11char_traitsIcEE17find_first_not_ofEcm, symObjAddr: 0xECB4, symBinAddr: 0x100019550, symSize: 0x7C }
  - { offset: 0x964D4, size: 0x8, addend: 0x0, symName: __ZNSt8__format10__put_signIyEEPcT_NS_5_SignES1_, symObjAddr: 0xEC54, symBinAddr: 0x1000194F0, symSize: 0x60 }
  - { offset: 0x96529, size: 0x8, addend: 0x0, symName: __ZNSt8__format10__put_signIxEEPcT_NS_5_SignES1_, symObjAddr: 0xEBD8, symBinAddr: 0x100019474, symSize: 0x7C }
  - { offset: 0x9657E, size: 0x8, addend: 0x0, symName: __ZNSt8__format10__put_signIiEEPcT_NS_5_SignES1_, symObjAddr: 0xEB5C, symBinAddr: 0x1000193F8, symSize: 0x7C }
  - { offset: 0x965D3, size: 0x8, addend: 0x0, symName: __ZNSt8__format10__put_signIjEEPcT_NS_5_SignES1_, symObjAddr: 0xEAFC, symBinAddr: 0x100019398, symSize: 0x60 }
  - { offset: 0x96630, size: 0x8, addend: 0x0, symName: __ZNSt7__cxx1112basic_stringIcSt11char_traitsIcESaIcEE6resizeEmc, symObjAddr: 0xEA7C, symBinAddr: 0x100019318, symSize: 0x80 }
  - { offset: 0x9668D, size: 0x8, addend: 0x0, symName: __ZNK9__gnu_cxx17__normal_iteratorIPcSt4spanIcLm18446744073709551615EEEplEl, symObjAddr: 0xEA40, symBinAddr: 0x1000192DC, symSize: 0x3C }
  - { offset: 0x966C8, size: 0x8, addend: 0x0, symName: __ZNSt7__cxx1112basic_stringIcSt11char_traitsIcESaIcEE20resize_and_overwriteIRZNSt8__format9_Seq_sinkIS4_E10_M_reserveEmEUlT_T0_E_EEvmS9_, symObjAddr: 0xE944, symBinAddr: 0x1000191E0, symSize: 0xFC }
  - { offset: 0x967C1, size: 0x8, addend: 0x0, symName: __ZZNSt7__cxx1112basic_stringIcSt11char_traitsIcESaIcEE20resize_and_overwriteIRZNSt8__format9_Seq_sinkIS4_E10_M_reserveEmEUlT_T0_E_EEvmS9_EN11_TerminatorD1Ev, symObjAddr: 0xE8F4, symBinAddr: 0x100019190, symSize: 0x34 }
  - { offset: 0x96825, size: 0x8, addend: 0x0, symName: __ZNSt8__format9_Seq_sinkINSt7__cxx1112basic_stringIcSt11char_traitsIcESaIcEEEE10_M_reserveEm, symObjAddr: 0xA310, symBinAddr: 0x100014BAC, symSize: 0x100 }
  - { offset: 0x968BD, size: 0x8, addend: 0x0, symName: __ZZNSt8__format9_Seq_sinkINSt7__cxx1112basic_stringIcSt11char_traitsIcESaIcEEEE10_M_reserveEmENKUlT_T0_E_clIPcmEEDaS8_S9_, symObjAddr: 0xE928, symBinAddr: 0x1000191C4, symSize: 0x1C }
  - { offset: 0x9699F, size: 0x8, addend: 0x0, symName: __ZNKSt6ranges9__copy_fnclIN9__gnu_cxx17__normal_iteratorIPcSt4spanIcLm18446744073709551615EEEES7_NSt8__format10_Sink_iterIcEEEENS_13in_out_resultIT_T1_EESC_T0_SD_, symObjAddr: 0xE89C, symBinAddr: 0x100019138, symSize: 0x58 }
  - { offset: 0x96A17, size: 0x8, addend: 0x0, symName: __ZNKSt8__format15__formatter_intIcE6formatIoNS_10_Sink_iterIcEEEENSt20basic_format_contextIT0_cE8iteratorET_RS7_, symObjAddr: 0xE554, symBinAddr: 0x100018DF0, symSize: 0x348 }
  - { offset: 0x96B22, size: 0x8, addend: 0x0, symName: __ZNSt8__format15__formatter_intIcE8_M_parseIoEEPKcRSt26basic_format_parse_contextIcE, symObjAddr: 0xE52C, symBinAddr: 0x100018DC8, symSize: 0x28 }
  - { offset: 0x96B66, size: 0x8, addend: 0x0, symName: __ZNKSt8__format15__formatter_intIcE6formatInNS_10_Sink_iterIcEEEENSt20basic_format_contextIT0_cE8iteratorET_RS7_, symObjAddr: 0xE1BC, symBinAddr: 0x100018A58, symSize: 0x370 }
  - { offset: 0x96C65, size: 0x8, addend: 0x0, symName: __ZNSt8__format15__formatter_intIcE8_M_parseInEEPKcRSt26basic_format_parse_contextIcE, symObjAddr: 0xE194, symBinAddr: 0x100018A30, symSize: 0x28 }
  - { offset: 0x96CAC, size: 0x8, addend: 0x0, symName: __ZNSt8__format22__write_padded_as_specIcNS_10_Sink_iterIcEEEET0_St17basic_string_viewINSt13type_identityIT_E4typeESt11char_traitsIS8_EEmRSt20basic_format_contextIS3_S6_ERKNS_5_SpecIS6_EENS_6_AlignE, symObjAddr: 0xE0D4, symBinAddr: 0x100018970, symSize: 0xC0 }
  - { offset: 0x96D5D, size: 0x8, addend: 0x0, symName: __ZNKSt8__format15__formatter_strIcE6formatINS_10_Sink_iterIcEEEET_St17basic_string_viewIcSt11char_traitsIcEERSt20basic_format_contextIS5_cE, symObjAddr: 0xE018, symBinAddr: 0x1000188B4, symSize: 0xBC }
  - { offset: 0x96DE7, size: 0x8, addend: 0x0, symName: __ZNSt8__format15__formatter_strIcE5parseERSt26basic_format_parse_contextIcE, symObjAddr: 0xDEC0, symBinAddr: 0x10001875C, symSize: 0x158 }
  - { offset: 0x96EF1, size: 0x8, addend: 0x0, symName: __ZZNSt8__format15__formatter_strIcE5parseERSt26basic_format_parse_contextIcEENKUlvE_clEv, symObjAddr: 0xDE28, symBinAddr: 0x1000186C4, symSize: 0x34 }
  - { offset: 0x9700A, size: 0x8, addend: 0x0, symName: __ZZNSt8__format15__formatter_strIcE5parseERSt26basic_format_parse_contextIcEENKUlvE0_clEv, symObjAddr: 0xDE5C, symBinAddr: 0x1000186F8, symSize: 0x64 }
  - { offset: 0x97088, size: 0x8, addend: 0x0, symName: __ZNKSt8__format14__formatter_fpIcE6formatIdNS_10_Sink_iterIcEEEENSt20basic_format_contextIT0_cE8iteratorET_RS7_, symObjAddr: 0xD340, symBinAddr: 0x100017BDC, symSize: 0xAE8 }
  - { offset: 0x97262, size: 0x8, addend: 0x0, symName: __ZZNKSt8__format14__formatter_fpIcE6formatIdNS_10_Sink_iterIcEEEENSt20basic_format_contextIT0_cE8iteratorET_RS7_ENKUlPcSB_E_clESB_SB_, symObjAddr: 0xD1D8, symBinAddr: 0x100017A74, symSize: 0xD8 }
  - { offset: 0x9748A, size: 0x8, addend: 0x0, symName: __ZZNKSt8__format14__formatter_fpIcE6formatIdNS_10_Sink_iterIcEEEENSt20basic_format_contextIT0_cE8iteratorET_RS7_ENKUlPcmE_clESB_m, symObjAddr: 0xD2B0, symBinAddr: 0x100017B4C, symSize: 0x90 }
  - { offset: 0x9767A, size: 0x8, addend: 0x0, symName: __ZNKSt8__format14__formatter_fpIcE6formatIfNS_10_Sink_iterIcEEEENSt20basic_format_contextIT0_cE8iteratorET_RS7_, symObjAddr: 0xC6F4, symBinAddr: 0x100016F90, symSize: 0xAE4 }
  - { offset: 0x97854, size: 0x8, addend: 0x0, symName: __ZZNKSt8__format14__formatter_fpIcE6formatIfNS_10_Sink_iterIcEEEENSt20basic_format_contextIT0_cE8iteratorET_RS7_ENKUlPcSB_E_clESB_SB_, symObjAddr: 0xC58C, symBinAddr: 0x100016E28, symSize: 0xD8 }
  - { offset: 0x97A7C, size: 0x8, addend: 0x0, symName: __ZZNKSt8__format14__formatter_fpIcE6formatIfNS_10_Sink_iterIcEEEENSt20basic_format_contextIT0_cE8iteratorET_RS7_ENKUlPcmE_clESB_m, symObjAddr: 0xC664, symBinAddr: 0x100016F00, symSize: 0x90 }
  - { offset: 0x97C6C, size: 0x8, addend: 0x0, symName: __ZNSt8__format14__formatter_fpIcE5parseERSt26basic_format_parse_contextIcE, symObjAddr: 0xC204, symBinAddr: 0x100016AA0, symSize: 0x388 }
  - { offset: 0x97D76, size: 0x8, addend: 0x0, symName: __ZZNSt8__format14__formatter_fpIcE5parseERSt26basic_format_parse_contextIcEENKUlvE_clEv, symObjAddr: 0xC16C, symBinAddr: 0x100016A08, symSize: 0x34 }
  - { offset: 0x97E8F, size: 0x8, addend: 0x0, symName: __ZZNSt8__format14__formatter_fpIcE5parseERSt26basic_format_parse_contextIcEENKUlvE0_clEv, symObjAddr: 0xC1A0, symBinAddr: 0x100016A3C, symSize: 0x64 }
  - { offset: 0x97F06, size: 0x8, addend: 0x0, symName: __ZNKSt8__format15__formatter_intIcE6formatIyNS_10_Sink_iterIcEEEENSt20basic_format_contextIT0_cE8iteratorET_RS7_, symObjAddr: 0xBE30, symBinAddr: 0x1000166CC, symSize: 0x33C }
  - { offset: 0x98011, size: 0x8, addend: 0x0, symName: __ZNSt8__format15__formatter_intIcE8_M_parseIyEEPKcRSt26basic_format_parse_contextIcE, symObjAddr: 0xBE08, symBinAddr: 0x1000166A4, symSize: 0x28 }
  - { offset: 0x98055, size: 0x8, addend: 0x0, symName: __ZNKSt8__format15__formatter_intIcE6formatIxNS_10_Sink_iterIcEEEENSt20basic_format_contextIT0_cE8iteratorET_RS7_, symObjAddr: 0xBAB0, symBinAddr: 0x10001634C, symSize: 0x358 }
  - { offset: 0x98154, size: 0x8, addend: 0x0, symName: __ZNSt8__format15__formatter_intIcE8_M_parseIxEEPKcRSt26basic_format_parse_contextIcE, symObjAddr: 0xBA88, symBinAddr: 0x100016324, symSize: 0x28 }
  - { offset: 0x98198, size: 0x8, addend: 0x0, symName: __ZNKSt8__format15__formatter_intIcE6formatIjNS_10_Sink_iterIcEEEENSt20basic_format_contextIT0_cE8iteratorET_RS7_, symObjAddr: 0xB74C, symBinAddr: 0x100015FE8, symSize: 0x33C }
  - { offset: 0x982A3, size: 0x8, addend: 0x0, symName: __ZNSt8__format15__formatter_intIcE8_M_parseIjEEPKcRSt26basic_format_parse_contextIcE, symObjAddr: 0xB724, symBinAddr: 0x100015FC0, symSize: 0x28 }
  - { offset: 0x982E7, size: 0x8, addend: 0x0, symName: __ZNKSt8__format15__formatter_intIcE6formatIiNS_10_Sink_iterIcEEEENSt20basic_format_contextIT0_cE8iteratorET_RS7_, symObjAddr: 0xB3CC, symBinAddr: 0x100015C68, symSize: 0x358 }
  - { offset: 0x983E6, size: 0x8, addend: 0x0, symName: __ZNKSt8__format15__formatter_intIcE6formatIhNS_10_Sink_iterIcEEEENSt20basic_format_contextIT0_cE8iteratorET_RS7_, symObjAddr: 0xB078, symBinAddr: 0x100015914, symSize: 0x354 }
  - { offset: 0x984F1, size: 0x8, addend: 0x0, symName: __ZNKSt8__format15__formatter_intIcE19_M_format_characterINS_10_Sink_iterIcEEEENSt20basic_format_contextIT_cE8iteratorEcRS7_, symObjAddr: 0xB020, symBinAddr: 0x1000158BC, symSize: 0x58 }
  - { offset: 0x9856A, size: 0x8, addend: 0x0, symName: __ZNSt8__format15__formatter_intIcE8_M_parseIcEEPKcRSt26basic_format_parse_contextIcE, symObjAddr: 0xAF78, symBinAddr: 0x100015814, symSize: 0xA8 }
  - { offset: 0x985D2, size: 0x8, addend: 0x0, symName: __ZNKSt8__format15__formatter_intIcE6formatINS_10_Sink_iterIcEEEENSt20basic_format_contextIT_cE8iteratorEbRS7_, symObjAddr: 0xADA8, symBinAddr: 0x100015644, symSize: 0x1D0 }
  - { offset: 0x9866C, size: 0x8, addend: 0x0, symName: __ZNSt8__format15__formatter_intIcE8_M_parseIbEEPKcRSt26basic_format_parse_contextIcE, symObjAddr: 0xAD1C, symBinAddr: 0x1000155B8, symSize: 0x8C }
  - { offset: 0x98733, size: 0x8, addend: 0x0, symName: __ZNKSt7__cxx1112basic_stringIcSt11char_traitsIcESaIcEE5emptyEv, symObjAddr: 0xACF4, symBinAddr: 0x100015590, symSize: 0x28 }
  - { offset: 0x9875D, size: 0x8, addend: 0x0, symName: __ZNSt7__cxx1112basic_stringIcSt11char_traitsIcESaIcEE6resizeEm, symObjAddr: 0xACC8, symBinAddr: 0x100015564, symSize: 0x2C }
  - { offset: 0x98798, size: 0x8, addend: 0x0, symName: __ZNSt8__format5_SinkIcE8_M_resetESt4spanIcLm18446744073709551615EEm, symObjAddr: 0xAC74, symBinAddr: 0x100015510, symSize: 0x54 }
  - { offset: 0x9881F, size: 0x8, addend: 0x0, symName: __ZNKSt6ranges9__copy_fnclIRSt4spanIcLm18446744073709551615EENSt8__format10_Sink_iterIcEEEENS_13in_out_resultINSt13__conditionalIX14borrowed_rangeIT_EEE4typeIDTcl7__begincl7declvalIRSA_EEEENS_8danglingEEET0_EEOSA_SH_, symObjAddr: 0xAC0C, symBinAddr: 0x1000154A8, symSize: 0x68 }
  - { offset: 0x9887D, size: 0x8, addend: 0x0, symName: __ZNKSt4spanIcLm18446744073709551615EE3endEv, symObjAddr: 0xABC8, symBinAddr: 0x100015464, symSize: 0x44 }
  - { offset: 0x988B2, size: 0x8, addend: 0x0, symName: __ZNKSt9formatterIocE6formatINSt8__format10_Sink_iterIcEEEENSt20basic_format_contextIT_cE8iteratorEoRS7_, symObjAddr: 0xAB9C, symBinAddr: 0x100015438, symSize: 0x2C }
  - { offset: 0x98936, size: 0x8, addend: 0x0, symName: __ZNKSt9formatterIncE6formatINSt8__format10_Sink_iterIcEEEENSt20basic_format_contextIT_cE8iteratorEnRS7_, symObjAddr: 0xAB70, symBinAddr: 0x10001540C, symSize: 0x2C }
  - { offset: 0x98A1F, size: 0x8, addend: 0x0, symName: __ZNKSt9formatterIPKvcE6formatINSt8__format10_Sink_iterIcEEEENSt20basic_format_contextIT_cE8iteratorES1_RS9_, symObjAddr: 0xAACC, symBinAddr: 0x100015368, symSize: 0xA4 }
  - { offset: 0x98B27, size: 0x8, addend: 0x0, symName: __ZNSt17basic_string_viewIcSt11char_traitsIcEEC1Ev, symObjAddr: 0xAAA8, symBinAddr: 0x100015344, symSize: 0x24 }
  - { offset: 0x98B4D, size: 0x8, addend: 0x0, symName: __ZNSt9formatterIPKvcE5parseERSt26basic_format_parse_contextIcE, symObjAddr: 0xA990, symBinAddr: 0x10001522C, symSize: 0x118 }
  - { offset: 0x98C57, size: 0x8, addend: 0x0, symName: __ZZNSt9formatterIPKvcE5parseERSt26basic_format_parse_contextIcEENKUlvE_clEv, symObjAddr: 0xA8F8, symBinAddr: 0x100015194, symSize: 0x34 }
  - { offset: 0x98D70, size: 0x8, addend: 0x0, symName: __ZZNSt9formatterIPKvcE5parseERSt26basic_format_parse_contextIcEENKUlvE0_clEv, symObjAddr: 0xA92C, symBinAddr: 0x1000151C8, symSize: 0x64 }
  - { offset: 0x98DF2, size: 0x8, addend: 0x0, symName: __ZNKSt9formatterISt17basic_string_viewIcSt11char_traitsIcEEcE6formatINSt8__format10_Sink_iterIcEEEENSt20basic_format_contextIT_cE8iteratorES3_RSB_, symObjAddr: 0xA8CC, symBinAddr: 0x100015168, symSize: 0x2C }
  - { offset: 0x98E76, size: 0x8, addend: 0x0, symName: __ZNKSt9formatterIPKccE6formatINSt8__format10_Sink_iterIcEEEENSt20basic_format_contextIT_cE8iteratorES1_RS9_, symObjAddr: 0xA888, symBinAddr: 0x100015124, symSize: 0x44 }
  - { offset: 0x98EFA, size: 0x8, addend: 0x0, symName: __ZNKSt9formatterIecE6formatINSt8__format10_Sink_iterIcEEEENSt20basic_format_contextIT_cE8iteratorEeRS7_, symObjAddr: 0xA85C, symBinAddr: 0x1000150F8, symSize: 0x2C }
  - { offset: 0x98F7E, size: 0x8, addend: 0x0, symName: __ZNKSt9formatterIdcE6formatINSt8__format10_Sink_iterIcEEEENSt20basic_format_contextIT_cE8iteratorEdRS7_, symObjAddr: 0xA830, symBinAddr: 0x1000150CC, symSize: 0x2C }
  - { offset: 0x99002, size: 0x8, addend: 0x0, symName: __ZNKSt9formatterIfcE6formatINSt8__format10_Sink_iterIcEEEENSt20basic_format_contextIT_cE8iteratorEfRS7_, symObjAddr: 0xA804, symBinAddr: 0x1000150A0, symSize: 0x2C }
  - { offset: 0x99086, size: 0x8, addend: 0x0, symName: __ZNKSt9formatterIycE6formatINSt8__format10_Sink_iterIcEEEENSt20basic_format_contextIT_cE8iteratorEyRS7_, symObjAddr: 0xA7D8, symBinAddr: 0x100015074, symSize: 0x2C }
  - { offset: 0x9910A, size: 0x8, addend: 0x0, symName: __ZNKSt9formatterIxcE6formatINSt8__format10_Sink_iterIcEEEENSt20basic_format_contextIT_cE8iteratorExRS7_, symObjAddr: 0xA7AC, symBinAddr: 0x100015048, symSize: 0x2C }
  - { offset: 0x9918E, size: 0x8, addend: 0x0, symName: __ZNKSt9formatterIjcE6formatINSt8__format10_Sink_iterIcEEEENSt20basic_format_contextIT_cE8iteratorEjRS7_, symObjAddr: 0xA780, symBinAddr: 0x10001501C, symSize: 0x2C }
  - { offset: 0x99212, size: 0x8, addend: 0x0, symName: __ZNKSt9formatterIicE6formatINSt8__format10_Sink_iterIcEEEENSt20basic_format_contextIT_cE8iteratorEiRS7_, symObjAddr: 0xA754, symBinAddr: 0x100014FF0, symSize: 0x2C }
  - { offset: 0x99272, size: 0x8, addend: 0x0, symName: __ZNKSt9formatterIccE6formatINSt8__format10_Sink_iterIcEEEENSt20basic_format_contextIT_cE8iteratorEcRS7_, symObjAddr: 0xA6BC, symBinAddr: 0x100014F58, symSize: 0x98 }
  - { offset: 0x992C7, size: 0x8, addend: 0x0, symName: __ZNSt9formatterIccE5parseERSt26basic_format_parse_contextIcE, symObjAddr: 0xA698, symBinAddr: 0x100014F34, symSize: 0x24 }
  - { offset: 0x9930D, size: 0x8, addend: 0x0, symName: __ZNKSt9formatterIbcE6formatINSt8__format10_Sink_iterIcEEEENSt20basic_format_contextIT_cE8iteratorEbRS7_, symObjAddr: 0xA668, symBinAddr: 0x100014F04, symSize: 0x30 }
  - { offset: 0x99389, size: 0x8, addend: 0x0, symName: __ZSt7forwardIZNSt8__format19_Formatting_scannerINS0_10_Sink_iterIcEEcE13_M_format_argEmEUlRT_E_EOS5_RNSt16remove_referenceIS5_E4typeE, symObjAddr: 0xA654, symBinAddr: 0x100014EF0, symSize: 0x14 }
  - { offset: 0x993BF, size: 0x8, addend: 0x0, symName: __ZNKSt20basic_format_contextINSt8__format10_Sink_iterIcEEcE3argEm, symObjAddr: 0xA554, symBinAddr: 0x100014DF0, symSize: 0x100 }
  - { offset: 0x99472, size: 0x8, addend: 0x0, symName: __ZNSt20basic_format_contextINSt8__format10_Sink_iterIcEEcE10advance_toES2_, symObjAddr: 0xA520, symBinAddr: 0x100014DBC, symSize: 0x34 }
  - { offset: 0x994A9, size: 0x8, addend: 0x0, symName: __ZNSt8__format7__writeINS_10_Sink_iterIcEEcEET_S3_St17basic_string_viewIT0_St11char_traitsIS5_EE, symObjAddr: 0xA4CC, symBinAddr: 0x100014D68, symSize: 0x54 }
  - { offset: 0x99524, size: 0x8, addend: 0x0, symName: __ZNSt8__format9_Seq_sinkINSt7__cxx1112basic_stringIcSt11char_traitsIcESaIcEEEE7_M_bumpEm, symObjAddr: 0xA410, symBinAddr: 0x100014CAC, symSize: 0xBC }
  - { offset: 0x995A7, size: 0x8, addend: 0x0, symName: __ZNSt8__format10_Iter_sinkIcNS_10_Sink_iterIcEEE11_M_overflowEv, symObjAddr: 0xA160, symBinAddr: 0x1000149FC, symSize: 0x1B0 }
  - { offset: 0x99662, size: 0x8, addend: 0x0, symName: __ZNKSt6ranges8__access4_EndclIRSt4spanIcLm18446744073709551615EEEEDaOT_, symObjAddr: 0xA140, symBinAddr: 0x1000149DC, symSize: 0x20 }
  - { offset: 0x996A5, size: 0x8, addend: 0x0, symName: __ZNKSt6ranges8__access6_BeginclIRSt4spanIcLm18446744073709551615EEEEDaOT_, symObjAddr: 0xA120, symBinAddr: 0x1000149BC, symSize: 0x20 }
  - { offset: 0x996E8, size: 0x8, addend: 0x0, symName: __ZNSt8__format19_Formatting_scannerINS_10_Sink_iterIcEEcE13_M_format_argEm, symObjAddr: 0xA0C0, symBinAddr: 0x10001495C, symSize: 0x60 }
  - { offset: 0x99753, size: 0x8, addend: 0x0, symName: __ZZNSt8__format19_Formatting_scannerINS_10_Sink_iterIcEEcE13_M_format_argEmENKUlRT_E_clIoEEDaS5_, symObjAddr: 0x9CB8, symBinAddr: 0x100014554, symSize: 0xB0 }
  - { offset: 0x9982A, size: 0x8, addend: 0x0, symName: __ZZNSt8__format19_Formatting_scannerINS_10_Sink_iterIcEEcE13_M_format_argEmENKUlRT_E_clInEEDaS5_, symObjAddr: 0x9C08, symBinAddr: 0x1000144A4, symSize: 0xB0 }
  - { offset: 0x998F7, size: 0x8, addend: 0x0, symName: __ZZNSt8__format19_Formatting_scannerINS_10_Sink_iterIcEEcE13_M_format_argEmENKUlRT_E_clINSt16basic_format_argISt20basic_format_contextIS2_cEE6handleEEEDaS5_, symObjAddr: 0x9B98, symBinAddr: 0x100014434, symSize: 0x70 }
  - { offset: 0x999A8, size: 0x8, addend: 0x0, symName: __ZZNSt8__format19_Formatting_scannerINS_10_Sink_iterIcEEcE13_M_format_argEmENKUlRT_E_clIPKvEEDaS5_, symObjAddr: 0x9B04, symBinAddr: 0x1000143A0, symSize: 0x94 }
  - { offset: 0x99A4B, size: 0x8, addend: 0x0, symName: __ZZNSt8__format19_Formatting_scannerINS_10_Sink_iterIcEEcE13_M_format_argEmENKUlRT_E_clISt17basic_string_viewIcSt11char_traitsIcEEEEDaS5_, symObjAddr: 0x9A5C, symBinAddr: 0x1000142F8, symSize: 0xA8 }
  - { offset: 0x99B18, size: 0x8, addend: 0x0, symName: __ZZNSt8__format19_Formatting_scannerINS_10_Sink_iterIcEEcE13_M_format_argEmENKUlRT_E_clIPKcEEDaS5_, symObjAddr: 0x99BC, symBinAddr: 0x100014258, symSize: 0xA0 }
  - { offset: 0x99BE5, size: 0x8, addend: 0x0, symName: __ZZNSt8__format19_Formatting_scannerINS_10_Sink_iterIcEEcE13_M_format_argEmENKUlRT_E_clIeEEDaS5_, symObjAddr: 0x9918, symBinAddr: 0x1000141B4, symSize: 0xA4 }
  - { offset: 0x99CB2, size: 0x8, addend: 0x0, symName: __ZZNSt8__format19_Formatting_scannerINS_10_Sink_iterIcEEcE13_M_format_argEmENKUlRT_E_clIdEEDaS5_, symObjAddr: 0x9874, symBinAddr: 0x100014110, symSize: 0xA4 }
  - { offset: 0x99D7F, size: 0x8, addend: 0x0, symName: __ZZNSt8__format19_Formatting_scannerINS_10_Sink_iterIcEEcE13_M_format_argEmENKUlRT_E_clIfEEDaS5_, symObjAddr: 0x97D0, symBinAddr: 0x10001406C, symSize: 0xA4 }
  - { offset: 0x99E4C, size: 0x8, addend: 0x0, symName: __ZZNSt8__format19_Formatting_scannerINS_10_Sink_iterIcEEcE13_M_format_argEmENKUlRT_E_clIyEEDaS5_, symObjAddr: 0x9730, symBinAddr: 0x100013FCC, symSize: 0xA0 }
  - { offset: 0x99F19, size: 0x8, addend: 0x0, symName: __ZZNSt8__format19_Formatting_scannerINS_10_Sink_iterIcEEcE13_M_format_argEmENKUlRT_E_clIxEEDaS5_, symObjAddr: 0x9690, symBinAddr: 0x100013F2C, symSize: 0xA0 }
  - { offset: 0x99FE6, size: 0x8, addend: 0x0, symName: __ZZNSt8__format19_Formatting_scannerINS_10_Sink_iterIcEEcE13_M_format_argEmENKUlRT_E_clIjEEDaS5_, symObjAddr: 0x95F0, symBinAddr: 0x100013E8C, symSize: 0xA0 }
  - { offset: 0x9A0B3, size: 0x8, addend: 0x0, symName: __ZZNSt8__format19_Formatting_scannerINS_10_Sink_iterIcEEcE13_M_format_argEmENKUlRT_E_clIiEEDaS5_, symObjAddr: 0x9550, symBinAddr: 0x100013DEC, symSize: 0xA0 }
  - { offset: 0x9A180, size: 0x8, addend: 0x0, symName: __ZZNSt8__format19_Formatting_scannerINS_10_Sink_iterIcEEcE13_M_format_argEmENKUlRT_E_clIcEEDaS5_, symObjAddr: 0x94BC, symBinAddr: 0x100013D58, symSize: 0x94 }
  - { offset: 0x9A223, size: 0x8, addend: 0x0, symName: __ZZNSt8__format19_Formatting_scannerINS_10_Sink_iterIcEEcE13_M_format_argEmENKUlRT_E_clIbEEDaS5_, symObjAddr: 0x941C, symBinAddr: 0x100013CB8, symSize: 0xA0 }
  - { offset: 0x9A2F0, size: 0x8, addend: 0x0, symName: __ZZNSt8__format19_Formatting_scannerINS_10_Sink_iterIcEEcE13_M_format_argEmENKUlRT_E_clISt9monostateEEDaS5_, symObjAddr: 0x9408, symBinAddr: 0x100013CA4, symSize: 0x14 }
  - { offset: 0x9A35B, size: 0x8, addend: 0x0, symName: __ZSt16visit_format_argIZNSt8__format19_Formatting_scannerINS0_10_Sink_iterIcEEcE13_M_format_argEmEUlRT_E_St20basic_format_contextIS3_cEEDcOS5_St16basic_format_argIT0_E, symObjAddr: 0xA080, symBinAddr: 0x10001491C, symSize: 0x40 }
  - { offset: 0x9A3AC, size: 0x8, addend: 0x0, symName: __ZNSt16basic_format_argISt20basic_format_contextINSt8__format10_Sink_iterIcEEcEE8_M_visitIZNS1_19_Formatting_scannerIS3_cE13_M_format_argEmEUlRT_E_EEDcOS9_NS1_6_Arg_tE, symObjAddr: 0x9D68, symBinAddr: 0x100014604, symSize: 0x318 }
  - { offset: 0x9A434, size: 0x8, addend: 0x0, symName: __ZNSt8__format19_Formatting_scannerINS_10_Sink_iterIcEEcE11_M_on_charsEPKc, symObjAddr: 0x93A4, symBinAddr: 0x100013C40, symSize: 0x64 }
  - { offset: 0x9A47C, size: 0x8, addend: 0x0, symName: __Z41__static_initialization_and_destruction_0v, symObjAddr: 0x173D0, symBinAddr: 0x10001E79C, symSize: 0x8B8 }
  - { offset: 0x9A4FC, size: 0x8, addend: 0x0, symName: __ZNSt5arrayIDiLm1EEixEm, symObjAddr: 0x9380, symBinAddr: 0x100013C1C, symSize: 0x24 }
  - { offset: 0x9A592, size: 0x8, addend: 0x0, symName: __ZNKSt4lessIPKcEclES1_S1_, symObjAddr: 0x932C, symBinAddr: 0x100013BC8, symSize: 0x54 }
  - { offset: 0x9A5F4, size: 0x8, addend: 0x0, symName: __ZSt9__advanceIPKclEvRT_T0_St26random_access_iterator_tag, symObjAddr: 0x92F8, symBinAddr: 0x100013B94, symSize: 0x34 }
  - { offset: 0x9A64C, size: 0x8, addend: 0x0, symName: __ZNSt9__unicode13_Utf_iteratorIcDiPKcS2_NS_5_ReplEE9_M_updateEDih, symObjAddr: 0x9298, symBinAddr: 0x100013B34, symSize: 0x60 }
  - { offset: 0x9A698, size: 0x8, addend: 0x0, symName: __ZNSt9__unicode13_Utf_iteratorIcDiPKcS2_NS_5_ReplEE8_S_errorEv, symObjAddr: 0x9234, symBinAddr: 0x100013AD0, symSize: 0x64 }
  - { offset: 0x9A711, size: 0x8, addend: 0x0, symName: __ZNSt9__unicode13_Utf_iteratorIcDiPKcS2_NS_5_ReplEE6_GuardIS2_ED1Ev, symObjAddr: 0x91F4, symBinAddr: 0x100013A90, symSize: 0x40 }
  - { offset: 0x9A73A, size: 0x8, addend: 0x0, symName: __ZSt7forwardIRPKcEOT_RNSt16remove_referenceIS3_E4typeE, symObjAddr: 0x91E0, symBinAddr: 0x100013A7C, symSize: 0x14 }
  - { offset: 0x9A773, size: 0x8, addend: 0x0, symName: __ZSt7forwardIRtEOT_RNSt16remove_referenceIS1_E4typeE, symObjAddr: 0x91CC, symBinAddr: 0x100013A68, symSize: 0x14 }
  - { offset: 0x9A7A5, size: 0x8, addend: 0x0, symName: __ZNSt8__detail15__raise_and_addItEEbRT_ih, symObjAddr: 0x90F0, symBinAddr: 0x10001398C, symSize: 0xDC }
  - { offset: 0x9A7FE, size: 0x8, addend: 0x0, symName: __ZNSt16basic_format_argISt20basic_format_contextINSt8__format10_Sink_iterIcEEcEE6_M_setIiEEvT_, symObjAddr: 0x90A4, symBinAddr: 0x100013940, symSize: 0x4C }
  - { offset: 0x9A88F, size: 0x8, addend: 0x0, symName: __ZSt10to_addressIcEPT_S1_, symObjAddr: 0x9088, symBinAddr: 0x100013924, symSize: 0x1C }
  - { offset: 0x9A8C5, size: 0x8, addend: 0x0, symName: __ZN9__gnu_cxx17__normal_iteratorIPcSt4spanIcLm18446744073709551615EEEpLEl, symObjAddr: 0x9058, symBinAddr: 0x1000138F4, symSize: 0x30 }
  - { offset: 0x9A900, size: 0x8, addend: 0x0, symName: __ZNKSt4spanIcLm18446744073709551615EE7subspanEmm, symObjAddr: 0x8F30, symBinAddr: 0x1000137CC, symSize: 0x128 }
  - { offset: 0x9A9AC, size: 0x8, addend: 0x0, symName: __ZNSt7__cxx1112basic_stringIcSt11char_traitsIcESaIcEE7_S_moveEPcPKcm, symObjAddr: 0x8EE4, symBinAddr: 0x100013780, symSize: 0x4C }
  - { offset: 0x9A9FC, size: 0x8, addend: 0x0, symName: __ZNKSt7__cxx1112basic_stringIcSt11char_traitsIcESaIcEE11_M_disjunctEPKc, symObjAddr: 0x8E60, symBinAddr: 0x1000136FC, symSize: 0x84 }
  - { offset: 0x9AA78, size: 0x8, addend: 0x0, symName: __ZNSt9__unicode13_Utf_iteratorIcDiPKcS2_NS_5_ReplEE12_M_read_utf8Ev, symObjAddr: 0x89B8, symBinAddr: 0x100013254, symSize: 0x4A8 }
  - { offset: 0x9ABA7, size: 0x8, addend: 0x0, symName: __ZZNSt9__unicode13_Utf_iteratorIcDiPKcS2_NS_5_ReplEE12_M_read_utf8EvENKUlvE_clEv, symObjAddr: 0x8970, symBinAddr: 0x10001320C, symSize: 0x48 }
  - { offset: 0x9AC88, size: 0x8, addend: 0x0, symName: __ZSt7forwardIDnEOT_RNSt16remove_referenceIS0_E4typeE, symObjAddr: 0x895C, symBinAddr: 0x1000131F8, symSize: 0x14 }
  - { offset: 0x9AD06, size: 0x8, addend: 0x0, symName: __ZNSt4pairItPKcEC1IRtRS1_EEOT_OT0_, symObjAddr: 0x8914, symBinAddr: 0x1000131B0, symSize: 0x48 }
  - { offset: 0x9AD4C, size: 0x8, addend: 0x0, symName: __ZNSt8__detail18__from_chars_alnumILb1EtEEbRPKcS2_RT0_i, symObjAddr: 0x8794, symBinAddr: 0x100013030, symSize: 0x180 }
  - { offset: 0x9AE02, size: 0x8, addend: 0x0, symName: __ZNSt8__detail25__from_chars_alnum_to_valILb1EEEhh, symObjAddr: 0x8778, symBinAddr: 0x100013014, symSize: 0x1C }
  - { offset: 0x9AE6D, size: 0x8, addend: 0x0, symName: __ZNSt16basic_format_argISt20basic_format_contextINSt8__format10_Sink_iterIcEEcEEC1IiEERT_, symObjAddr: 0x873C, symBinAddr: 0x100012FD8, symSize: 0x3C }
  - { offset: 0x9AF22, size: 0x8, addend: 0x0, symName: __ZNSt4spanIcLm18446744073709551615EEC1IPcEET_m, symObjAddr: 0x86D0, symBinAddr: 0x100012F94, symSize: 0x44 }
  - { offset: 0x9AF63, size: 0x8, addend: 0x0, symName: __ZNK9__gnu_cxx17__normal_iteratorIPcSt4spanIcLm18446744073709551615EEE4baseEv, symObjAddr: 0x86BC, symBinAddr: 0x100012F80, symSize: 0x14 }
  - { offset: 0x9AFB5, size: 0x8, addend: 0x0, symName: __ZN9__gnu_cxx17__normal_iteratorIPcSt4spanIcLm18446744073709551615EEEC1ERKS1_, symObjAddr: 0x8694, symBinAddr: 0x100012F58, symSize: 0x28 }
  - { offset: 0x9AFE4, size: 0x8, addend: 0x0, symName: __ZNSt8__format5_SinkIcE7_M_bumpEm, symObjAddr: 0x8668, symBinAddr: 0x100012F2C, symSize: 0x2C }
  - { offset: 0x9B01F, size: 0x8, addend: 0x0, symName: __ZNK9__gnu_cxx17__normal_iteratorIPcSt4spanIcLm18446744073709551615EEEptEv, symObjAddr: 0x8650, symBinAddr: 0x100012F14, symSize: 0x18 }
  - { offset: 0x9B05F, size: 0x8, addend: 0x0, symName: __ZNKSt17basic_format_argsISt20basic_format_contextINSt8__format10_Sink_iterIcEEcEE7_M_typeEm, symObjAddr: 0x8604, symBinAddr: 0x100012EC8, symSize: 0x4C }
  - { offset: 0x9B0BD, size: 0x8, addend: 0x0, symName: __ZSt11__addressofINSt8__format5_SinkIcEEEPT_RS3_, symObjAddr: 0x85F0, symBinAddr: 0x100012EB4, symSize: 0x14 }
  - { offset: 0x9B0F3, size: 0x8, addend: 0x0, symName: __ZN9__gnu_cxx5__ops16_Iter_equals_valIKDiEclIPS2_EEbT_, symObjAddr: 0x85BC, symBinAddr: 0x100012E80, symSize: 0x34 }
  - { offset: 0x9B13A, size: 0x8, addend: 0x0, symName: __ZSt9__advanceIPKjlEvRT_T0_St26random_access_iterator_tag, symObjAddr: 0x8584, symBinAddr: 0x100012E48, symSize: 0x38 }
  - { offset: 0x9B1DB, size: 0x8, addend: 0x0, symName: __ZSt9__advanceIPKDilEvRT_T0_St26random_access_iterator_tag, symObjAddr: 0x854C, symBinAddr: 0x100012E10, symSize: 0x38 }
  - { offset: 0x9B22F, size: 0x8, addend: 0x0, symName: __ZSt13__countl_zeroImEiT_, symObjAddr: 0x84F8, symBinAddr: 0x100012DBC, symSize: 0x54 }
  - { offset: 0x9B2C8, size: 0x8, addend: 0x0, symName: __ZNKSt7__cxx1112basic_stringIcSt11char_traitsIcESaIcEE8_M_checkEmPKc, symObjAddr: 0x8480, symBinAddr: 0x100012D44, symSize: 0x78 }
  - { offset: 0x9B318, size: 0x8, addend: 0x0, symName: __ZNSt7__cxx1112basic_stringIcSt11char_traitsIcESaIcEE10_M_replaceEmmPKcm, symObjAddr: 0x8210, symBinAddr: 0x100012AD4, symSize: 0x270 }
  - { offset: 0x9B485, size: 0x8, addend: 0x0, symName: __ZNKSt9__unicode13_Utf_iteratorIcDiPKcS2_NS_5_ReplEE7_M_currEv, symObjAddr: 0x81F8, symBinAddr: 0x100012ABC, symSize: 0x18 }
  - { offset: 0x9B4AF, size: 0x8, addend: 0x0, symName: __ZNKSt5arrayIDiLm1EEixEm, symObjAddr: 0x81D4, symBinAddr: 0x100012A98, symSize: 0x24 }
  - { offset: 0x9B4E9, size: 0x8, addend: 0x0, symName: __ZNSt9__unicode13_Utf_iteratorIcDiPKcS2_NS_5_ReplEEppEv, symObjAddr: 0x80A8, symBinAddr: 0x10001296C, symSize: 0x12C }
  - { offset: 0x9B56B, size: 0x8, addend: 0x0, symName: __ZNSt9__unicode13_Utf_iteratorIcDiPKcS2_NS_5_ReplEE7_M_readEv, symObjAddr: 0x8088, symBinAddr: 0x10001294C, symSize: 0x20 }
  - { offset: 0x9B595, size: 0x8, addend: 0x0, symName: __ZNSt9__unicode13_Utf_iteratorIcDiPKcS2_NS_5_ReplEE7_M_currEv, symObjAddr: 0x8070, symBinAddr: 0x100012934, symSize: 0x18 }
  - { offset: 0x9B5F5, size: 0x8, addend: 0x0, symName: __ZNSt9__unicode13_Utf_iteratorIcDiPKcS2_NS_5_ReplEE15_First_and_currIS2_EC1ES2_S2_, symObjAddr: 0x803C, symBinAddr: 0x100012900, symSize: 0x34 }
  - { offset: 0x9B630, size: 0x8, addend: 0x0, symName: __ZSt7forwardINSt6ranges8subrangeIPKcS3_LNS0_13subrange_kindE1EEEEOT_RNSt16remove_referenceIS6_E4typeE, symObjAddr: 0x8028, symBinAddr: 0x1000128EC, symSize: 0x14 }
  - { offset: 0x9B684, size: 0x8, addend: 0x0, symName: __ZSt4moveIRPKcEONSt16remove_referenceIT_E4typeEOS4_, symObjAddr: 0x8014, symBinAddr: 0x1000128D8, symSize: 0x14 }
  - { offset: 0x9B702, size: 0x8, addend: 0x0, symName: __ZNSt4pairItPKcEC1IiDnEEOT_OT0_, symObjAddr: 0x7FCC, symBinAddr: 0x100012890, symSize: 0x48 }
  - { offset: 0x9B748, size: 0x8, addend: 0x0, symName: __ZNSt8__format15__parse_integerIcEESt4pairItPKT_ES4_S4_, symObjAddr: 0x7F14, symBinAddr: 0x1000127D8, symSize: 0xB8 }
  - { offset: 0x9B7FD, size: 0x8, addend: 0x0, symName: __ZNSt4pairItPKcEC1ERKtRKS1_Qcl16_S_constructibleIRKT_RKT0_EE, symObjAddr: 0x7ED8, symBinAddr: 0x10001279C, symSize: 0x3C }
  - { offset: 0x9B87D, size: 0x8, addend: 0x0, symName: __ZNSt4pairItPKcEC1IiS1_EEOT_OT0_, symObjAddr: 0x7E8C, symBinAddr: 0x100012750, symSize: 0x4C }
  - { offset: 0x9B8C3, size: 0x8, addend: 0x0, symName: __ZNSt8__format10_Arg_storeISt20basic_format_contextINS_10_Sink_iterIcEEcEJiEE11_S_make_eltIiEENS_10_Arg_valueIS4_EERT_, symObjAddr: 0x7E68, symBinAddr: 0x10001272C, symSize: 0x24 }
  - { offset: 0x9B951, size: 0x8, addend: 0x0, symName: __ZNKSt4spanIcLm18446744073709551615EE5firstEm, symObjAddr: 0x7DBC, symBinAddr: 0x1000126BC, symSize: 0x70 }
  - { offset: 0x9B9A2, size: 0x8, addend: 0x0, symName: __ZN9__gnu_cxxmiIPcSt4spanIcLm18446744073709551615EEEENS_17__normal_iteratorIT_T0_E15difference_typeERKS7_SA_, symObjAddr: 0x7D80, symBinAddr: 0x100012680, symSize: 0x3C }
  - { offset: 0x9B9F3, size: 0x8, addend: 0x0, symName: __ZNKSt4spanIcLm18446744073709551615EE5beginEv, symObjAddr: 0x7D5C, symBinAddr: 0x10001265C, symSize: 0x24 }
  - { offset: 0x9BA1D, size: 0x8, addend: 0x0, symName: __ZNSt20basic_format_contextINSt8__format10_Sink_iterIcEEcE3outEv, symObjAddr: 0x7D38, symBinAddr: 0x100012638, symSize: 0x24 }
  - { offset: 0x9BA7D, size: 0x8, addend: 0x0, symName: __ZNSt8__format19_Formatting_scannerINS_10_Sink_iterIcEEcEC1ERSt20basic_format_contextIS2_cESt17basic_string_viewIcSt11char_traitsIcEE, symObjAddr: 0x7CE8, symBinAddr: 0x1000125E8, symSize: 0x50 }
  - { offset: 0x9BAF9, size: 0x8, addend: 0x0, symName: __ZNSt20basic_format_contextINSt8__format10_Sink_iterIcEEcEC1ESt17basic_format_argsIS3_ES2_RKSt6locale, symObjAddr: 0x7C90, symBinAddr: 0x100012590, symSize: 0x58 }
  - { offset: 0x9BB70, size: 0x8, addend: 0x0, symName: __ZNSt20basic_format_contextINSt8__format10_Sink_iterIcEEcEC1ESt17basic_format_argsIS3_ES2_, symObjAddr: 0x7C2C, symBinAddr: 0x10001252C, symSize: 0x64 }
  - { offset: 0x9BBCC, size: 0x8, addend: 0x0, symName: __ZNSt8__format5_SinkIcE12_Reservation7_M_bumpEm, symObjAddr: 0x7BEC, symBinAddr: 0x1000124EC, symSize: 0x40 }
  - { offset: 0x9BC07, size: 0x8, addend: 0x0, symName: __ZNKSt8__format5_SinkIcE12_Reservation3getEv, symObjAddr: 0x7BC8, symBinAddr: 0x1000124C8, symSize: 0x24 }
  - { offset: 0x9BC31, size: 0x8, addend: 0x0, symName: __ZNKSt8__format5_SinkIcE12_ReservationcvbEv, symObjAddr: 0x7BA4, symBinAddr: 0x1000124A4, symSize: 0x24 }
  - { offset: 0x9BC5B, size: 0x8, addend: 0x0, symName: __ZNSt8__format5_SinkIcE10_M_reserveEm, symObjAddr: 0x7A40, symBinAddr: 0x100012340, symSize: 0x164 }
  - { offset: 0x9BCE3, size: 0x8, addend: 0x0, symName: __ZSt7forwardIZNSt8__format15__do_vformat_toINS0_10_Sink_iterIcEEcSt20basic_format_contextIS3_cEEET_S6_St17basic_string_viewIT0_St11char_traitsIS8_EERKSt17basic_format_argsIT1_EPKSt6localeEUlRS6_E_EOS6_RNSt16remove_referenceIS6_E4typeE, symObjAddr: 0x7A2C, symBinAddr: 0x10001232C, symSize: 0x14 }
  - { offset: 0x9BD79, size: 0x8, addend: 0x0, symName: __ZSt9addressofINSt8__format5_SinkIcEEEPT_RS3_, symObjAddr: 0x7A10, symBinAddr: 0x100012310, symSize: 0x1C }
  - { offset: 0x9BE18, size: 0x8, addend: 0x0, symName: __ZNSt4spanIcLm18446744073709551615EEC1ILm256EEERAT__c, symObjAddr: 0x79D8, symBinAddr: 0x1000122D8, symSize: 0x38 }
  - { offset: 0x9BE52, size: 0x8, addend: 0x0, symName: __ZNSt17basic_string_viewIcSt11char_traitsIcEE13remove_suffixEm, symObjAddr: 0x7970, symBinAddr: 0x100012270, symSize: 0x68 }
  - { offset: 0x9BEA3, size: 0x8, addend: 0x0, symName: __ZSt9__find_ifIPKDiN9__gnu_cxx5__ops16_Iter_equals_valIS0_EEET_S6_S6_T0_St26random_access_iterator_tag, symObjAddr: 0x77B0, symBinAddr: 0x1000120B0, symSize: 0x1C0 }
  - { offset: 0x9BF5D, size: 0x8, addend: 0x0, symName: __ZN9__gnu_cxx5__ops16_Iter_equals_valIKDiEC1ERS2_, symObjAddr: 0x778C, symBinAddr: 0x10001208C, symSize: 0x24 }
  - { offset: 0x9BF97, size: 0x8, addend: 0x0, symName: __ZNK9__gnu_cxx5__ops14_Iter_less_valclIPKjS3_EEbT_RT0_, symObjAddr: 0x7758, symBinAddr: 0x100012058, symSize: 0x34 }
  - { offset: 0x9C06A, size: 0x8, addend: 0x0, symName: __ZNK9__gnu_cxx5__ops14_Val_less_iterclIKDiPS3_EEbRT_T0_, symObjAddr: 0x7724, symBinAddr: 0x100012024, symSize: 0x34 }
  - { offset: 0x9C103, size: 0x8, addend: 0x0, symName: __ZSt11__bit_widthImEiT_, symObjAddr: 0x76F4, symBinAddr: 0x100011FF4, symSize: 0x30 }
  - { offset: 0x9C179, size: 0x8, addend: 0x0, symName: __ZSt7forwardIRcEOT_RNSt16remove_referenceIS1_E4typeE, symObjAddr: 0x76E0, symBinAddr: 0x100011FE0, symSize: 0x14 }
  - { offset: 0x9C1B2, size: 0x8, addend: 0x0, symName: __ZSt7forwardIiEOT_RNSt16remove_referenceIS0_E4typeE, symObjAddr: 0x76CC, symBinAddr: 0x100011FCC, symSize: 0x14 }
  - { offset: 0x9C1E4, size: 0x8, addend: 0x0, symName: __ZNSt8__format5_SpecIcE27_S_parse_width_or_precisionEPKcS3_RtRbRSt26basic_format_parse_contextIcE, symObjAddr: 0x7520, symBinAddr: 0x100011E20, symSize: 0x1AC }
  - { offset: 0x9C2E1, size: 0x8, addend: 0x0, symName: __ZNSt8__format5_SpecIcE7_S_signEc, symObjAddr: 0x74D0, symBinAddr: 0x100011DD0, symSize: 0x50 }
  - { offset: 0x9C30B, size: 0x8, addend: 0x0, symName: __ZNSt8__format5_SpecIcE8_S_alignEc, symObjAddr: 0x747C, symBinAddr: 0x100011D7C, symSize: 0x54 }
  - { offset: 0x9C339, size: 0x8, addend: 0x0, symName: __ZNKSt9__unicode13_Utf_iteratorIcDiPKcS2_NS_5_ReplEE4baseEvQ16forward_iteratorIT1_E, symObjAddr: 0x7460, symBinAddr: 0x100011D60, symSize: 0x1C }
  - { offset: 0x9C363, size: 0x8, addend: 0x0, symName: __ZNKSt9__unicode13_Utf_iteratorIcDiPKcS2_NS_5_ReplEEdeEv, symObjAddr: 0x742C, symBinAddr: 0x100011D2C, symSize: 0x34 }
  - { offset: 0x9C38D, size: 0x8, addend: 0x0, symName: __ZNSt9__unicode13_Utf_iteratorIcDiPKcS2_NS_5_ReplEEppEi, symObjAddr: 0x73E4, symBinAddr: 0x100011CE4, symSize: 0x48 }
  - { offset: 0x9C411, size: 0x8, addend: 0x0, symName: __ZNSt9__unicode13_Utf_iteratorIcDiPKcS2_NS_5_ReplEEC1ES2_S2_S2_Q22bidirectional_iteratorIT1_E, symObjAddr: 0x7348, symBinAddr: 0x100011C48, symSize: 0x9C }
  - { offset: 0x9C47A, size: 0x8, addend: 0x0, symName: __ZNSt9__unicode9_Utf_viewIDiNSt6ranges8subrangeIPKcS4_LNS1_13subrange_kindE1EEEEC1EOS6_, symObjAddr: 0x7318, symBinAddr: 0x100011C18, symSize: 0x30 }
  - { offset: 0x9C4E8, size: 0x8, addend: 0x0, symName: __ZNSt6ranges8subrangeIPKcS2_LNS_13subrange_kindE1EEC1IS2_EET_S2_QntL_ZNS0_IS6_T0_XT1_EE13_S_store_sizeEE, symObjAddr: 0x72C8, symBinAddr: 0x100011BC8, symSize: 0x50 }
  - { offset: 0x9C556, size: 0x8, addend: 0x0, symName: __ZNKSt6ranges8subrangeIPKcS2_LNS_13subrange_kindE1EE3endEv, symObjAddr: 0x72B0, symBinAddr: 0x100011BB0, symSize: 0x18 }
  - { offset: 0x9C580, size: 0x8, addend: 0x0, symName: __ZNKSt6ranges8subrangeIPKcS2_LNS_13subrange_kindE1EE5beginEvQ8copyableIT_E, symObjAddr: 0x7298, symBinAddr: 0x100011B98, symSize: 0x18 }
  - { offset: 0x9C5AA, size: 0x8, addend: 0x0, symName: __ZNSt26basic_format_parse_contextIcE12check_arg_idEm, symObjAddr: 0x7234, symBinAddr: 0x100011B34, symSize: 0x64 }
  - { offset: 0x9C5E1, size: 0x8, addend: 0x0, symName: __ZNSt8__format14__parse_arg_idIcEESt4pairItPKT_ES4_S4_, symObjAddr: 0x7118, symBinAddr: 0x100011A18, symSize: 0x11C }
  - { offset: 0x9C6A9, size: 0x8, addend: 0x0, symName: __ZNSt17basic_format_argsISt20basic_format_contextINSt8__format10_Sink_iterIcEEcEEC1IJiEEERKNS1_10_Arg_storeIS4_JDpT_EEE, symObjAddr: 0x70B8, symBinAddr: 0x1000119B8, symSize: 0x60 }
  - { offset: 0x9C6E5, size: 0x8, addend: 0x0, symName: __ZNSt16reverse_iteratorIPKNSt8__format6_Arg_tEEppEv, symObjAddr: 0x7090, symBinAddr: 0x100011990, symSize: 0x28 }
  - { offset: 0x9C70F, size: 0x8, addend: 0x0, symName: __ZNKSt16reverse_iteratorIPKNSt8__format6_Arg_tEE4baseEv, symObjAddr: 0x7078, symBinAddr: 0x100011978, symSize: 0x18 }
  - { offset: 0x9C735, size: 0x8, addend: 0x0, symName: __ZSteqIPKNSt8__format6_Arg_tEEbRKSt16reverse_iteratorIT_ES8_QrqXeqcldtfL0p_4baseEcldtfL0p0_4baseERSt14convertible_toIbEE, symObjAddr: 0x7038, symBinAddr: 0x100011938, symSize: 0x40 }
  - { offset: 0x9C77D, size: 0x8, addend: 0x0, symName: __ZNKSt5arrayINSt8__format6_Arg_tELm1EE5beginEv, symObjAddr: 0x701C, symBinAddr: 0x10001191C, symSize: 0x1C }
  - { offset: 0x9C7A7, size: 0x8, addend: 0x0, symName: __ZNKSt5arrayINSt8__format6_Arg_tELm1EE4rendEv, symObjAddr: 0x6FE4, symBinAddr: 0x1000118E4, symSize: 0x38 }
  - { offset: 0x9C7F8, size: 0x8, addend: 0x0, symName: __ZNSt16reverse_iteratorIPKNSt8__format6_Arg_tEEC1ES3_, symObjAddr: 0x6FC0, symBinAddr: 0x1000118C0, symSize: 0x24 }
  - { offset: 0x9C827, size: 0x8, addend: 0x0, symName: __ZNKSt5arrayINSt8__format6_Arg_tELm1EE4dataEv, symObjAddr: 0x6FAC, symBinAddr: 0x1000118AC, symSize: 0x14 }
  - { offset: 0x9C851, size: 0x8, addend: 0x0, symName: __ZNKSt5arrayINSt8__format6_Arg_tELm1EE3endEv, symObjAddr: 0x6F8C, symBinAddr: 0x10001188C, symSize: 0x20 }
  - { offset: 0x9C87B, size: 0x8, addend: 0x0, symName: __ZNKSt5arrayINSt8__format6_Arg_tELm1EE6rbeginEv, symObjAddr: 0x6F54, symBinAddr: 0x100011854, symSize: 0x38 }
  - { offset: 0x9C8A8, size: 0x8, addend: 0x0, symName: __ZNSt8__format16__pack_arg_typesILi5ELm1EEEDaRKSt5arrayINS_6_Arg_tEXT0_EE, symObjAddr: 0x6EC4, symBinAddr: 0x1000117C4, symSize: 0x90 }
  - { offset: 0x9C91F, size: 0x8, addend: 0x0, symName: __ZNKSt16reverse_iteratorIPKNSt8__format6_Arg_tEEdeEv, symObjAddr: 0x6E98, symBinAddr: 0x100011798, symSize: 0x2C }
  - { offset: 0x9C9DA, size: 0x8, addend: 0x0, symName: __ZNSt4spanIcLm18446744073709551615EEC1IRNSt7__cxx1112basic_stringIcSt11char_traitsIcESaIcEEEEEOT_, symObjAddr: 0x6BCC, symBinAddr: 0x100011734, symSize: 0x64 }
  - { offset: 0x9CA12, size: 0x8, addend: 0x0, symName: __ZNSt7__cxx1112basic_stringIcSt11char_traitsIcESaIcEE4dataEv, symObjAddr: 0x6BB0, symBinAddr: 0x100011718, symSize: 0x1C }
  - { offset: 0x9CA38, size: 0x8, addend: 0x0, symName: __ZSt12__to_addressIcEPT_S1_, symObjAddr: 0x6B9C, symBinAddr: 0x100011704, symSize: 0x14 }
  - { offset: 0x9CA6E, size: 0x8, addend: 0x0, symName: __ZNSt8__format9_Seq_sinkINSt7__cxx1112basic_stringIcSt11char_traitsIcESaIcEEEE11_M_overflowEv, symObjAddr: 0x6AD0, symBinAddr: 0x100011638, symSize: 0xCC }
  - { offset: 0x9CAF1, size: 0x8, addend: 0x0, symName: __ZNKSt4spanIcLm18446744073709551615EE5emptyEv, symObjAddr: 0x6AA8, symBinAddr: 0x100011610, symSize: 0x28 }
  - { offset: 0x9CB34, size: 0x8, addend: 0x0, symName: __ZNSt8__format15__do_vformat_toINS_10_Sink_iterIcEEcSt20basic_format_contextIS2_cEEET_S5_St17basic_string_viewIT0_St11char_traitsIS7_EERKSt17basic_format_argsIT1_EPKSt6locale, symObjAddr: 0x67A0, symBinAddr: 0x100011308, symSize: 0x308 }
  - { offset: 0x9CC5E, size: 0x8, addend: 0x0, symName: __ZZNSt8__format15__do_vformat_toINS_10_Sink_iterIcEEcSt20basic_format_contextIS2_cEEET_S5_St17basic_string_viewIT0_St11char_traitsIS7_EERKSt17basic_format_argsIT1_EPKSt6localeENKUlRS5_E_clIoEEDaSJ_, symObjAddr: 0x640C, symBinAddr: 0x100010F74, symSize: 0x18 }
  - { offset: 0x9CCD9, size: 0x8, addend: 0x0, symName: __ZZNSt8__format15__do_vformat_toINS_10_Sink_iterIcEEcSt20basic_format_contextIS2_cEEET_S5_St17basic_string_viewIT0_St11char_traitsIS7_EERKSt17basic_format_argsIT1_EPKSt6localeENKUlRS5_E_clInEEDaSJ_, symObjAddr: 0x63F4, symBinAddr: 0x100010F5C, symSize: 0x18 }
  - { offset: 0x9CD4A, size: 0x8, addend: 0x0, symName: __ZZNSt8__format15__do_vformat_toINS_10_Sink_iterIcEEcSt20basic_format_contextIS2_cEEET_S5_St17basic_string_viewIT0_St11char_traitsIS7_EERKSt17basic_format_argsIT1_EPKSt6localeENKUlRS5_E_clINSt16basic_format_argIS4_E6handleEEEDaSJ_, symObjAddr: 0x63DC, symBinAddr: 0x100010F44, symSize: 0x18 }
  - { offset: 0x9CDBB, size: 0x8, addend: 0x0, symName: __ZZNSt8__format15__do_vformat_toINS_10_Sink_iterIcEEcSt20basic_format_contextIS2_cEEET_S5_St17basic_string_viewIT0_St11char_traitsIS7_EERKSt17basic_format_argsIT1_EPKSt6localeENKUlRS5_E_clIPKvEEDaSJ_, symObjAddr: 0x63C4, symBinAddr: 0x100010F2C, symSize: 0x18 }
  - { offset: 0x9CE2C, size: 0x8, addend: 0x0, symName: __ZZNSt8__format15__do_vformat_toINS_10_Sink_iterIcEEcSt20basic_format_contextIS2_cEEET_S5_St17basic_string_viewIT0_St11char_traitsIS7_EERKSt17basic_format_argsIT1_EPKSt6localeENKUlRS5_E_clIS6_IcS8_IcEEEEDaSJ_, symObjAddr: 0x630C, symBinAddr: 0x100010E74, symSize: 0xB8 }
  - { offset: 0x9CEF6, size: 0x8, addend: 0x0, symName: __ZZNSt8__format15__do_vformat_toINS_10_Sink_iterIcEEcSt20basic_format_contextIS2_cEEET_S5_St17basic_string_viewIT0_St11char_traitsIS7_EERKSt17basic_format_argsIT1_EPKSt6localeENKUlRS5_E_clIPKcEEDaSJ_, symObjAddr: 0x6250, symBinAddr: 0x100010DB8, symSize: 0xBC }
  - { offset: 0x9CFC0, size: 0x8, addend: 0x0, symName: __ZZNSt8__format15__do_vformat_toINS_10_Sink_iterIcEEcSt20basic_format_contextIS2_cEEET_S5_St17basic_string_viewIT0_St11char_traitsIS7_EERKSt17basic_format_argsIT1_EPKSt6localeENKUlRS5_E_clIeEEDaSJ_, symObjAddr: 0x6238, symBinAddr: 0x100010DA0, symSize: 0x18 }
  - { offset: 0x9D031, size: 0x8, addend: 0x0, symName: __ZZNSt8__format15__do_vformat_toINS_10_Sink_iterIcEEcSt20basic_format_contextIS2_cEEET_S5_St17basic_string_viewIT0_St11char_traitsIS7_EERKSt17basic_format_argsIT1_EPKSt6localeENKUlRS5_E_clIdEEDaSJ_, symObjAddr: 0x6220, symBinAddr: 0x100010D88, symSize: 0x18 }
  - { offset: 0x9D0A2, size: 0x8, addend: 0x0, symName: __ZZNSt8__format15__do_vformat_toINS_10_Sink_iterIcEEcSt20basic_format_contextIS2_cEEET_S5_St17basic_string_viewIT0_St11char_traitsIS7_EERKSt17basic_format_argsIT1_EPKSt6localeENKUlRS5_E_clIfEEDaSJ_, symObjAddr: 0x6208, symBinAddr: 0x100010D70, symSize: 0x18 }
  - { offset: 0x9D113, size: 0x8, addend: 0x0, symName: __ZZNSt8__format15__do_vformat_toINS_10_Sink_iterIcEEcSt20basic_format_contextIS2_cEEET_S5_St17basic_string_viewIT0_St11char_traitsIS7_EERKSt17basic_format_argsIT1_EPKSt6localeENKUlRS5_E_clIyEEDaSJ_, symObjAddr: 0x6160, symBinAddr: 0x100010CC8, symSize: 0xA8 }
  - { offset: 0x9D223, size: 0x8, addend: 0x0, symName: __ZZNSt8__format15__do_vformat_toINS_10_Sink_iterIcEEcSt20basic_format_contextIS2_cEEET_S5_St17basic_string_viewIT0_St11char_traitsIS7_EERKSt17basic_format_argsIT1_EPKSt6localeENKUlRS5_E_clIxEEDaSJ_, symObjAddr: 0x6060, symBinAddr: 0x100010BC8, symSize: 0x100 }
  - { offset: 0x9D333, size: 0x8, addend: 0x0, symName: __ZZNSt8__format15__do_vformat_toINS_10_Sink_iterIcEEcSt20basic_format_contextIS2_cEEET_S5_St17basic_string_viewIT0_St11char_traitsIS7_EERKSt17basic_format_argsIT1_EPKSt6localeENKUlRS5_E_clIjEEDaSJ_, symObjAddr: 0x5FB8, symBinAddr: 0x100010B20, symSize: 0xA8 }
  - { offset: 0x9D443, size: 0x8, addend: 0x0, symName: __ZZNSt8__format15__do_vformat_toINS_10_Sink_iterIcEEcSt20basic_format_contextIS2_cEEET_S5_St17basic_string_viewIT0_St11char_traitsIS7_EERKSt17basic_format_argsIT1_EPKSt6localeENKUlRS5_E_clIiEEDaSJ_, symObjAddr: 0x5EB8, symBinAddr: 0x100010A20, symSize: 0x100 }
  - { offset: 0x9D553, size: 0x8, addend: 0x0, symName: __ZZNSt8__format15__do_vformat_toINS_10_Sink_iterIcEEcSt20basic_format_contextIS2_cEEET_S5_St17basic_string_viewIT0_St11char_traitsIS7_EERKSt17basic_format_argsIT1_EPKSt6localeENKUlRS5_E_clIcEEDaSJ_, symObjAddr: 0x5E38, symBinAddr: 0x1000109A0, symSize: 0x80 }
  - { offset: 0x9D5F9, size: 0x8, addend: 0x0, symName: __ZZNSt8__format15__do_vformat_toINS_10_Sink_iterIcEEcSt20basic_format_contextIS2_cEEET_S5_St17basic_string_viewIT0_St11char_traitsIS7_EERKSt17basic_format_argsIT1_EPKSt6localeENKUlRS5_E_clIbEEDaSJ_, symObjAddr: 0x5D2C, symBinAddr: 0x100010894, symSize: 0xD0 }
  - { offset: 0x9D6D4, size: 0x8, addend: 0x0, symName: __ZZNSt8__format15__do_vformat_toINS_10_Sink_iterIcEEcSt20basic_format_contextIS2_cEEET_S5_St17basic_string_viewIT0_St11char_traitsIS7_EERKSt17basic_format_argsIT1_EPKSt6localeENKUlRS5_E_clISt9monostateEEDaSJ_, symObjAddr: 0x5D14, symBinAddr: 0x10001087C, symSize: 0x18 }
  - { offset: 0x9D866, size: 0x8, addend: 0x0, symName: __ZNSt20basic_format_contextINSt8__format10_Sink_iterIcEEcED1Ev, symObjAddr: 0x677C, symBinAddr: 0x1000112E4, symSize: 0x24 }
  - { offset: 0x9D888, size: 0x8, addend: 0x0, symName: __ZSt16visit_format_argIZNSt8__format15__do_vformat_toINS0_10_Sink_iterIcEEcSt20basic_format_contextIS3_cEEET_S6_St17basic_string_viewIT0_St11char_traitsIS8_EERKSt17basic_format_argsIT1_EPKSt6localeEUlRS6_E_S5_EDcOS6_St16basic_format_argIS8_E, symObjAddr: 0x673C, symBinAddr: 0x1000112A4, symSize: 0x40 }
  - { offset: 0x9D8D9, size: 0x8, addend: 0x0, symName: __ZNSt16basic_format_argISt20basic_format_contextINSt8__format10_Sink_iterIcEEcEE8_M_visitIZNS1_15__do_vformat_toIS3_cS4_EET_S8_St17basic_string_viewIT0_St11char_traitsISA_EERKSt17basic_format_argsIT1_EPKSt6localeEUlRS8_E_EEDcOS8_NS1_6_Arg_tE, symObjAddr: 0x6424, symBinAddr: 0x100010F8C, symSize: 0x318 }
  - { offset: 0x9D965, size: 0x8, addend: 0x0, symName: __ZNKSt8__format10_Sink_iterIcE10_M_reserveEm, symObjAddr: 0x5DFC, symBinAddr: 0x100010964, symSize: 0x3C }
  - { offset: 0x9D9AF, size: 0x8, addend: 0x0, symName: __ZSt4moveIRNSt8__format10_Sink_iterIcEEEONSt16remove_referenceIT_E4typeEOS5_, symObjAddr: 0x5D00, symBinAddr: 0x100010868, symSize: 0x14 }
  - { offset: 0x9DA1B, size: 0x8, addend: 0x0, symName: __ZSt9__find_ifIPKDiN9__gnu_cxx5__ops16_Iter_equals_valIS0_EEET_S6_S6_T0_, symObjAddr: 0x5CD0, symBinAddr: 0x100010838, symSize: 0x30 }
  - { offset: 0x9DA9A, size: 0x8, addend: 0x0, symName: __ZN9__gnu_cxx5__ops17__iter_equals_valIKDiEENS0_16_Iter_equals_valIT_EERS4_, symObjAddr: 0x5CAC, symBinAddr: 0x100010814, symSize: 0x24 }
  - { offset: 0x9DACD, size: 0x8, addend: 0x0, symName: __ZSt13__lower_boundIPKjjN9__gnu_cxx5__ops14_Iter_less_valEET_S5_S5_RKT0_T1_, symObjAddr: 0x5BA0, symBinAddr: 0x100010708, symSize: 0x10C }
  - { offset: 0x9DC77, size: 0x8, addend: 0x0, symName: __ZSt13__upper_boundIPKDiDiN9__gnu_cxx5__ops14_Val_less_iterEET_S5_S5_RKT0_T1_, symObjAddr: 0x5A90, symBinAddr: 0x1000105F8, symSize: 0x110 }
  - { offset: 0x9DE21, size: 0x8, addend: 0x0, symName: __ZNSt8__detail10__to_charsImEESt15to_chars_resultPcS2_T_i, symObjAddr: 0x5950, symBinAddr: 0x1000104B8, symSize: 0x140 }
  - { offset: 0x9DEFB, size: 0x8, addend: 0x0, symName: __ZNSt8__detail12__to_chars_2ImEESt15to_chars_resultPcS2_T_, symObjAddr: 0x5860, symBinAddr: 0x1000103C8, symSize: 0xF0 }
  - { offset: 0x9DF83, size: 0x8, addend: 0x0, symName: __ZNSt8__detail12__to_chars_8ImEESt15to_chars_resultPcS2_T_, symObjAddr: 0x569C, symBinAddr: 0x100010204, symSize: 0x1C4 }
  - { offset: 0x9E04F, size: 0x8, addend: 0x0, symName: __ZNSt8__detail13__to_chars_10ImEESt15to_chars_resultPcS2_T_, symObjAddr: 0x5608, symBinAddr: 0x100010170, symSize: 0x94 }
  - { offset: 0x9E0C1, size: 0x8, addend: 0x0, symName: __ZNSt8__detail13__to_chars_16ImEESt15to_chars_resultPcS2_T_, symObjAddr: 0x5470, symBinAddr: 0x10000FFD8, symSize: 0x198 }
  - { offset: 0x9E19C, size: 0x8, addend: 0x0, symName: __ZNSt8__detail16__to_chars_len_2ImEEjT_, symObjAddr: 0x5454, symBinAddr: 0x10000FFBC, symSize: 0x1C }
  - { offset: 0x9E1CE, size: 0x8, addend: 0x0, symName: __ZNSt8__detail10__to_charsIjEESt15to_chars_resultPcS2_T_i, symObjAddr: 0x5318, symBinAddr: 0x10000FE80, symSize: 0x13C }
  - { offset: 0x9E2A8, size: 0x8, addend: 0x0, symName: __ZNSt8__detail12__to_chars_2IjEESt15to_chars_resultPcS2_T_, symObjAddr: 0x5228, symBinAddr: 0x10000FD90, symSize: 0xF0 }
  - { offset: 0x9E330, size: 0x8, addend: 0x0, symName: __ZNSt8__detail12__to_chars_8IjEESt15to_chars_resultPcS2_T_, symObjAddr: 0x5064, symBinAddr: 0x10000FBCC, symSize: 0x1C4 }
  - { offset: 0x9E3FB, size: 0x8, addend: 0x0, symName: __ZNSt8__detail13__to_chars_10IjEESt15to_chars_resultPcS2_T_, symObjAddr: 0x4FD0, symBinAddr: 0x10000FB38, symSize: 0x94 }
  - { offset: 0x9E46D, size: 0x8, addend: 0x0, symName: __ZNSt8__detail13__to_chars_16IjEESt15to_chars_resultPcS2_T_, symObjAddr: 0x4E38, symBinAddr: 0x10000F9A0, symSize: 0x198 }
  - { offset: 0x9E546, size: 0x8, addend: 0x0, symName: __ZNSt8__detail16__to_chars_len_2IjEEjT_, symObjAddr: 0x4E1C, symBinAddr: 0x10000F984, symSize: 0x1C }
  - { offset: 0x9E57F, size: 0x8, addend: 0x0, symName: __ZSt4moveIRNSt7__cxx1112basic_stringIcSt11char_traitsIcESaIcEEEEONSt16remove_referenceIT_E4typeEOS8_, symObjAddr: 0x4E08, symBinAddr: 0x10000F970, symSize: 0x14 }
  - { offset: 0x9E5B1, size: 0x8, addend: 0x0, symName: __ZSt12construct_atIcJRcEEDTgsnwcvPvLi0E_T_pispcl7declvalIT0_EEEEPS2_DpOS3_, symObjAddr: 0x4D88, symBinAddr: 0x10000F90C, symSize: 0x64 }
  - { offset: 0x9E603, size: 0x8, addend: 0x0, symName: __ZNSt8__format5_SpecIcE15_M_parse_localeEPKcS3_, symObjAddr: 0x4D40, symBinAddr: 0x10000F8C4, symSize: 0x48 }
  - { offset: 0x9E647, size: 0x8, addend: 0x0, symName: __ZNSt8__format5_SpecIcE14_M_parse_widthEPKcS3_RSt26basic_format_parse_contextIcE, symObjAddr: 0x4C98, symBinAddr: 0x10000F81C, symSize: 0xA8 }
  - { offset: 0x9E6C6, size: 0x8, addend: 0x0, symName: __ZNSt8__format5_SpecIcE18_M_parse_zero_fillEPKcS3_, symObjAddr: 0x4C50, symBinAddr: 0x10000F7D4, symSize: 0x48 }
  - { offset: 0x9E70A, size: 0x8, addend: 0x0, symName: __ZNSt8__format5_SpecIcE23_M_parse_alternate_formEPKcS3_, symObjAddr: 0x4C08, symBinAddr: 0x10000F78C, symSize: 0x48 }
  - { offset: 0x9E74E, size: 0x8, addend: 0x0, symName: __ZNSt8__format5_SpecIcE13_M_parse_signEPKcS3_, symObjAddr: 0x4BA4, symBinAddr: 0x10000F728, symSize: 0x64 }
  - { offset: 0x9E7B6, size: 0x8, addend: 0x0, symName: __ZNSt8__format5_SpecIcE23_M_parse_fill_and_alignEPKcS3_, symObjAddr: 0x4A34, symBinAddr: 0x10000F5B8, symSize: 0x170 }
  - { offset: 0x9E8EC, size: 0x8, addend: 0x0, symName: __ZNSt9__unicode9_Utf_viewIDiNSt6ranges8subrangeIPKcS4_LNS1_13subrange_kindE1EEEE5beginEv, symObjAddr: 0x49D0, symBinAddr: 0x10000F554, symSize: 0x64 }
  - { offset: 0x9E916, size: 0x8, addend: 0x0, symName: __ZNSt9__unicode9_Utf_viewIDiNSt6ranges8subrangeIPKcS4_LNS1_13subrange_kindE1EEEE8_M_beginIS4_S4_EEDaT_T0_, symObjAddr: 0x499C, symBinAddr: 0x10000F520, symSize: 0x34 }
  - { offset: 0x9E974, size: 0x8, addend: 0x0, symName: __ZNKSt6ranges8subrangeIPKcS2_LNS_13subrange_kindE1EE5emptyEv, symObjAddr: 0x4970, symBinAddr: 0x10000F4F4, symSize: 0x2C }
  - { offset: 0x9E9A9, size: 0x8, addend: 0x0, symName: __ZNKSt6ranges8__access6_EmptyclIRKNS_8subrangeIPKcS5_LNS_13subrange_kindE1EEEEEbOT_, symObjAddr: 0x4950, symBinAddr: 0x10000F4D4, symSize: 0x20 }
  - { offset: 0x9E9ED, size: 0x8, addend: 0x0, symName: __ZNKSt9__unicode9_Utf_viewIDiNSt6ranges8subrangeIPKcS4_LNS1_13subrange_kindE1EEEE5emptyEv, symObjAddr: 0x4928, symBinAddr: 0x10000F4AC, symSize: 0x28 }
  - { offset: 0x9EA17, size: 0x8, addend: 0x0, symName: __ZNKSt6ranges8__access4_EndclIRNS_8subrangeIPKcS5_LNS_13subrange_kindE1EEEEEDaOT_, symObjAddr: 0x4908, symBinAddr: 0x10000F48C, symSize: 0x20 }
  - { offset: 0x9EA5A, size: 0x8, addend: 0x0, symName: __ZNKSt6ranges8__access6_BeginclIRNS_8subrangeIPKcS5_LNS_13subrange_kindE1EEEEEDaOT_, symObjAddr: 0x48E8, symBinAddr: 0x10000F46C, symSize: 0x20 }
  - { offset: 0x9EA9D, size: 0x8, addend: 0x0, symName: __ZNSt8__format8_ScannerIcE23_M_on_replacement_fieldEv, symObjAddr: 0x46CC, symBinAddr: 0x10000F250, symSize: 0x21C }
  - { offset: 0x9EB2A, size: 0x8, addend: 0x0, symName: __ZSt7forwardIPKcEOT_RNSt16remove_referenceIS2_E4typeE, symObjAddr: 0x46B8, symBinAddr: 0x10000F23C, symSize: 0x14 }
  - { offset: 0x9EB5C, size: 0x8, addend: 0x0, symName: __ZNSt10__pair_getILm1EE10__move_getItPKcEEOT0_OSt4pairIT_S4_E, symObjAddr: 0x4698, symBinAddr: 0x10000F21C, symSize: 0x20 }
  - { offset: 0x9EB98, size: 0x8, addend: 0x0, symName: __ZSt3getILm1EtPKcEONSt13tuple_elementIXT_ESt4pairIT0_T1_EE4typeEOS6_, symObjAddr: 0x4678, symBinAddr: 0x10000F1FC, symSize: 0x20 }
  - { offset: 0x9EBEC, size: 0x8, addend: 0x0, symName: __ZSt7forwardItEOT_RNSt16remove_referenceIS0_E4typeE, symObjAddr: 0x4664, symBinAddr: 0x10000F1E8, symSize: 0x14 }
  - { offset: 0x9EC1E, size: 0x8, addend: 0x0, symName: __ZNSt10__pair_getILm0EE10__move_getItPKcEEOT_OSt4pairIS4_T0_E, symObjAddr: 0x4648, symBinAddr: 0x10000F1CC, symSize: 0x1C }
  - { offset: 0x9EC61, size: 0x8, addend: 0x0, symName: __ZSt4moveIRSt4pairItPKcEEONSt16remove_referenceIT_E4typeEOS6_, symObjAddr: 0x4634, symBinAddr: 0x10000F1B8, symSize: 0x14 }
  - { offset: 0x9EC93, size: 0x8, addend: 0x0, symName: __ZSt3getILm0EtPKcEONSt13tuple_elementIXT_ESt4pairIT0_T1_EE4typeEOS6_, symObjAddr: 0x4614, symBinAddr: 0x10000F198, symSize: 0x20 }
  - { offset: 0x9ECDD, size: 0x8, addend: 0x0, symName: __ZNSt8__format8_ScannerIcE11_M_on_charsEPKc, symObjAddr: 0x45FC, symBinAddr: 0x10000F180, symSize: 0x18 }
  - { offset: 0x9ED13, size: 0x8, addend: 0x0, symName: __ZNKSt17basic_string_viewIcSt11char_traitsIcEE4findEcm, symObjAddr: 0x4564, symBinAddr: 0x10000F0E8, symSize: 0x98 }
  - { offset: 0x9ED9C, size: 0x8, addend: 0x0, symName: __ZSt6formatIJRiEENSt7__cxx1112basic_stringIcSt11char_traitsIcESaIcEEESt19basic_format_stringIcJDpNSt13type_identityIT_E4typeEEEDpOS9_, symObjAddr: 0x44E0, symBinAddr: 0x10000F064, symSize: 0x84 }
  - { offset: 0x9EE9A, size: 0x8, addend: 0x0, symName: __ZNKSt6ranges8__access5_SizeclIRNSt7__cxx1112basic_stringIcSt11char_traitsIcESaIcEEEEEDaOT_, symObjAddr: 0x4134, symBinAddr: 0x10000F044, symSize: 0x20 }
  - { offset: 0x9EEE9, size: 0x8, addend: 0x0, symName: __ZNKSt6ranges8__access5_DataclIRNSt7__cxx1112basic_stringIcSt11char_traitsIcESaIcEEEEEDaOT_, symObjAddr: 0x4114, symBinAddr: 0x10000F024, symSize: 0x20 }
  - { offset: 0x9EF2D, size: 0x8, addend: 0x0, symName: __ZNOSt8__format9_Seq_sinkINSt7__cxx1112basic_stringIcSt11char_traitsIcESaIcEEEE3getEv, symObjAddr: 0x405C, symBinAddr: 0x10000EF6C, symSize: 0xB8 }
  - { offset: 0x9EF85, size: 0x8, addend: 0x0, symName: __ZSt4moveIRNSt8__format9_Seq_sinkINSt7__cxx1112basic_stringIcSt11char_traitsIcESaIcEEEEEEONSt16remove_referenceIT_E4typeEOSB_, symObjAddr: 0x4048, symBinAddr: 0x10000EF58, symSize: 0x14 }
  - { offset: 0x9F01E, size: 0x8, addend: 0x0, symName: __ZSt12construct_atISt6localeJEEDTgsnwcvPvLi0E_T_pispcl7declvalIT0_EEEEPS2_DpOS3_, symObjAddr: 0x3FF0, symBinAddr: 0x10000EF00, symSize: 0x58 }
  - { offset: 0x9F0C7, size: 0x8, addend: 0x0, symName: __ZSt4findIPKDiDiET_S2_S2_RKT0_, symObjAddr: 0x3FBC, symBinAddr: 0x10000EECC, symSize: 0x34 }
  - { offset: 0x9F154, size: 0x8, addend: 0x0, symName: __ZSt11lower_boundIPKjjET_S2_S2_RKT0_, symObjAddr: 0x3F80, symBinAddr: 0x10000EE90, symSize: 0x3C }
  - { offset: 0x9F1F0, size: 0x8, addend: 0x0, symName: __ZSt11upper_boundIPKDiDiET_S2_S2_RKT0_, symObjAddr: 0x3F44, symBinAddr: 0x10000EE54, symSize: 0x3C }
  - { offset: 0x9F27D, size: 0x8, addend: 0x0, symName: __ZSt13__countl_zeroIjEiT_, symObjAddr: 0x3EF0, symBinAddr: 0x10000EE00, symSize: 0x54 }
  - { offset: 0x9F312, size: 0x8, addend: 0x0, symName: __ZSt12__to_chars_iIyESt15to_chars_resultPcS1_T_i, symObjAddr: 0x3D54, symBinAddr: 0x10000EC64, symSize: 0x19C }
  - { offset: 0x9F3B0, size: 0x8, addend: 0x0, symName: __ZSt12__to_chars_iImESt15to_chars_resultPcS1_T_i, symObjAddr: 0x3BB8, symBinAddr: 0x10000EAC8, symSize: 0x19C }
  - { offset: 0x9F44E, size: 0x8, addend: 0x0, symName: __ZSt12__to_chars_iIjESt15to_chars_resultPcS1_T_i, symObjAddr: 0x3A1C, symBinAddr: 0x10000E92C, symSize: 0x19C }
  - { offset: 0x9F4EC, size: 0x8, addend: 0x0, symName: __ZSt12__to_chars_iIhESt15to_chars_resultPcS1_T_i, symObjAddr: 0x387C, symBinAddr: 0x10000E78C, symSize: 0x1A0 }
  - { offset: 0x9F58E, size: 0x8, addend: 0x0, symName: __ZNKSt7__cxx1112basic_stringIcSt11char_traitsIcESaIcEEcvSt17basic_string_viewIcS2_EEv, symObjAddr: 0x3834, symBinAddr: 0x10000E744, symSize: 0x48 }
  - { offset: 0x9F5B4, size: 0x8, addend: 0x0, symName: __ZNSt8__detail18__to_chars_10_implIyEEvPcjT_, symObjAddr: 0x3668, symBinAddr: 0x10000E578, symSize: 0x1CC }
  - { offset: 0x9F670, size: 0x8, addend: 0x0, symName: __ZNSt8__detail18__to_chars_10_implImEEvPcjT_, symObjAddr: 0x349C, symBinAddr: 0x10000E3AC, symSize: 0x1CC }
  - { offset: 0x9F72C, size: 0x8, addend: 0x0, symName: __ZNSt8__detail18__to_chars_10_implIjEEvPcjT_, symObjAddr: 0x32E8, symBinAddr: 0x10000E1F8, symSize: 0x1B4 }
  - { offset: 0x9F820, size: 0x8, addend: 0x0, symName: __ZNSt17basic_string_viewIcSt11char_traitsIcEEC1EPKcm, symObjAddr: 0x32B4, symBinAddr: 0x10000E1C4, symSize: 0x34 }
  - { offset: 0x9F858, size: 0x8, addend: 0x0, symName: __ZNKSt17basic_string_viewIcSt11char_traitsIcEE4dataEv, symObjAddr: 0x329C, symBinAddr: 0x10000E1AC, symSize: 0x18 }
  - { offset: 0x9F87E, size: 0x8, addend: 0x0, symName: __ZN9__gnu_cxx11char_traitsIcE6assignEPcmc, symObjAddr: 0x3200, symBinAddr: 0x10000E110, symSize: 0x9C }
  - { offset: 0x9F92C, size: 0x8, addend: 0x0, symName: __ZN9__gnu_cxx11char_traitsIcE4moveEPcPKcm, symObjAddr: 0x3194, symBinAddr: 0x10000E0A4, symSize: 0x6C }
  - { offset: 0x9F98E, size: 0x8, addend: 0x0, symName: __ZN9__gnu_cxx11char_traitsIcE4findEPKcmRS2_, symObjAddr: 0x3120, symBinAddr: 0x10000E030, symSize: 0x74 }
  - { offset: 0x9F9FD, size: 0x8, addend: 0x0, symName: __ZN4game12Food_Spawner5clearEv, symObjAddr: 0x30F4, symBinAddr: 0x10000E004, symSize: 0x2C }
  - { offset: 0x9FA17, size: 0x8, addend: 0x0, symName: __ZN4game12Food_Spawner5spawnEv, symObjAddr: 0x2F70, symBinAddr: 0x10000DE80, symSize: 0x184 }
  - { offset: 0x9FA93, size: 0x8, addend: 0x0, symName: __ZNSt10shared_ptrIN4game4FoodEED1Ev, symObjAddr: 0x2F50, symBinAddr: 0x10000DE60, symSize: 0x20 }
  - { offset: 0x9FADD, size: 0x8, addend: 0x0, symName: __ZNSt12__shared_ptrIN4game4FoodELN9__gnu_cxx12_Lock_policyE2EED2Ev, symObjAddr: 0x2F2C, symBinAddr: 0x10000DE3C, symSize: 0x24 }
  - { offset: 0x9FAFF, size: 0x8, addend: 0x0, symName: __ZN4game12Food_Spawner25get_and_increase_id_indexB5cxx11Ev, symObjAddr: 0x2E9C, symBinAddr: 0x10000DDE4, symSize: 0x58 }
  - { offset: 0x9FB1B, size: 0x8, addend: 0x0, symName: __ZNSt8__format15__formatter_intIcE11_M_do_parseERSt26basic_format_parse_contextIcENS_10_Pres_typeE, symObjAddr: 0x2B1C, symBinAddr: 0x10000DA64, symSize: 0x380 }
  - { offset: 0x9FC37, size: 0x8, addend: 0x0, symName: __ZZNSt8__format15__formatter_intIcE11_M_do_parseERSt26basic_format_parse_contextIcENS_10_Pres_typeEENKUlvE_clEv, symObjAddr: 0x2A84, symBinAddr: 0x10000D9CC, symSize: 0x34 }
  - { offset: 0x9FD50, size: 0x8, addend: 0x0, symName: __ZZNSt8__format15__formatter_intIcE11_M_do_parseERSt26basic_format_parse_contextIcENS_10_Pres_typeEENKUlvE0_clEv, symObjAddr: 0x2AB8, symBinAddr: 0x10000DA00, symSize: 0x64 }
  - { offset: 0x9FDC7, size: 0x8, addend: 0x0, symName: __ZNSt8__format15__formatter_intIcE8_M_parseIiEEPKcRSt26basic_format_parse_contextIcE, symObjAddr: 0x2A5C, symBinAddr: 0x10000D9A4, symSize: 0x28 }
  - { offset: 0x9FE2F, size: 0x8, addend: 0x0, symName: __ZNSt26basic_format_parse_contextIcE11next_arg_idEv, symObjAddr: 0x29E8, symBinAddr: 0x10000D930, symSize: 0x74 }
  - { offset: 0x9FE59, size: 0x8, addend: 0x0, symName: __ZNSt26basic_format_parse_contextIcE10advance_toEPKc, symObjAddr: 0x29C4, symBinAddr: 0x10000D90C, symSize: 0x24 }
  - { offset: 0x9FE90, size: 0x8, addend: 0x0, symName: __ZSt12__to_addressIKcEPT_S2_, symObjAddr: 0x29B0, symBinAddr: 0x10000D8F8, symSize: 0x14 }
  - { offset: 0x9FEC2, size: 0x8, addend: 0x0, symName: __ZSt10to_addressIKcEPT_S2_, symObjAddr: 0x2994, symBinAddr: 0x10000D8DC, symSize: 0x1C }
  - { offset: 0x9FF3E, size: 0x8, addend: 0x0, symName: __ZNSt17basic_string_viewIcSt11char_traitsIcEEC1IPKcS5_EET_T0_, symObjAddr: 0x2948, symBinAddr: 0x10000D890, symSize: 0x4C }
  - { offset: 0x9FF88, size: 0x8, addend: 0x0, symName: __ZNKSt26basic_format_parse_contextIcE3endEv, symObjAddr: 0x2930, symBinAddr: 0x10000D878, symSize: 0x18 }
  - { offset: 0x9FFB2, size: 0x8, addend: 0x0, symName: __ZNKSt8__format8_ScannerIcE3endEv, symObjAddr: 0x2910, symBinAddr: 0x10000D858, symSize: 0x20 }
  - { offset: 0x9FFDC, size: 0x8, addend: 0x0, symName: __ZNKSt26basic_format_parse_contextIcE5beginEv, symObjAddr: 0x28F8, symBinAddr: 0x10000D840, symSize: 0x18 }
  - { offset: 0xA0006, size: 0x8, addend: 0x0, symName: __ZNKSt8__format8_ScannerIcE5beginEv, symObjAddr: 0x28D8, symBinAddr: 0x10000D820, symSize: 0x20 }
  - { offset: 0xA0030, size: 0x8, addend: 0x0, symName: __ZNKSt8__format8_ScannerIcE10_M_fmt_strEv, symObjAddr: 0x2890, symBinAddr: 0x10000D7D8, symSize: 0x48 }
  - { offset: 0xA005A, size: 0x8, addend: 0x0, symName: __ZNSt8__format8_ScannerIcE7_M_scanEv, symObjAddr: 0x2484, symBinAddr: 0x10000D3CC, symSize: 0x40C }
  - { offset: 0xA0135, size: 0x8, addend: 0x0, symName: __ZNKSt17basic_string_viewIcSt11char_traitsIcEEixEm, symObjAddr: 0x2428, symBinAddr: 0x10000D370, symSize: 0x5C }
  - { offset: 0xA0189, size: 0x8, addend: 0x0, symName: __ZNKSt17basic_string_viewIcSt11char_traitsIcEE4sizeEv, symObjAddr: 0x2410, symBinAddr: 0x10000D358, symSize: 0x18 }
  - { offset: 0xA01B3, size: 0x8, addend: 0x0, symName: __ZNKSt17basic_string_viewIcSt11char_traitsIcEE3endEv, symObjAddr: 0x23EC, symBinAddr: 0x10000D334, symSize: 0x24 }
  - { offset: 0xA01DD, size: 0x8, addend: 0x0, symName: __ZNKSt17basic_string_viewIcSt11char_traitsIcEE5beginEv, symObjAddr: 0x23D4, symBinAddr: 0x10000D31C, symSize: 0x18 }
  - { offset: 0xA023B, size: 0x8, addend: 0x0, symName: __ZNSt26basic_format_parse_contextIcEC1ESt17basic_string_viewIcSt11char_traitsIcEEm, symObjAddr: 0x2370, symBinAddr: 0x10000D2B8, symSize: 0x64 }
  - { offset: 0xA02A9, size: 0x8, addend: 0x0, symName: __ZNSt8__format8_ScannerIcEC2ESt17basic_string_viewIcSt11char_traitsIcEEm, symObjAddr: 0x2328, symBinAddr: 0x10000D270, symSize: 0x48 }
  - { offset: 0xA0308, size: 0x8, addend: 0x0, symName: __ZNSt17basic_string_viewIcSt11char_traitsIcEEC1EPKc, symObjAddr: 0x22EC, symBinAddr: 0x10000D234, symSize: 0x3C }
  - { offset: 0xA0333, size: 0x8, addend: 0x0, symName: __ZN4game12Food_Spawner5is_onEv, symObjAddr: 0x22DC, symBinAddr: 0x10000D224, symSize: 0x10 }
  - { offset: 0xA038D, size: 0x8, addend: 0x0, symName: __ZNSt7__cxx1112basic_stringIcSt11char_traitsIcESaIcEEC1EOS4_, symObjAddr: 0x2120, symBinAddr: 0x10000D090, symSize: 0x194 }
  - { offset: 0xA047E, size: 0x8, addend: 0x0, symName: __ZNKSt4spanIcLm18446744073709551615EE4sizeEv, symObjAddr: 0x1220, symBinAddr: 0x10000D070, symSize: 0x20 }
  - { offset: 0xA04A8, size: 0x8, addend: 0x0, symName: __ZNKSt4spanIcLm18446744073709551615EE4dataEv, symObjAddr: 0x1208, symBinAddr: 0x10000D058, symSize: 0x18 }
  - { offset: 0xA04CE, size: 0x8, addend: 0x0, symName: __ZSt7vformatB5cxx11St17basic_string_viewIcSt11char_traitsIcEESt17basic_format_argsISt20basic_format_contextINSt8__format10_Sink_iterIcEEcEE, symObjAddr: 0x10C0, symBinAddr: 0x10000CF10, symSize: 0x148 }
  - { offset: 0xA0640, size: 0x8, addend: 0x0, symName: __ZNSt8__format9_Seq_sinkINSt7__cxx1112basic_stringIcSt11char_traitsIcESaIcEEEED1Ev, symObjAddr: 0x1088, symBinAddr: 0x10000CED8, symSize: 0x38 }
  - { offset: 0xA0666, size: 0x8, addend: 0x0, symName: __ZNSt8__format16_Optional_locale5valueEv, symObjAddr: 0x1040, symBinAddr: 0x10000CE90, symSize: 0x48 }
  - { offset: 0xA06B4, size: 0x8, addend: 0x0, symName: __ZNSt8__format16_Optional_localeD1Ev, symObjAddr: 0x100C, symBinAddr: 0x10000CE5C, symSize: 0x34 }
  - { offset: 0xA0702, size: 0x8, addend: 0x0, symName: __ZNSt8__format16_Optional_localeC1ERKSt6locale, symObjAddr: 0xFD8, symBinAddr: 0x10000CE28, symSize: 0x34 }
  - { offset: 0xA0743, size: 0x8, addend: 0x0, symName: __ZNSt8__format11__is_xdigitEc, symObjAddr: 0xFB0, symBinAddr: 0x10000CE00, symSize: 0x28 }
  - { offset: 0xA076D, size: 0x8, addend: 0x0, symName: __ZNSt8__format10__is_digitEc, symObjAddr: 0xF88, symBinAddr: 0x10000CDD8, symSize: 0x28 }
  - { offset: 0xA0797, size: 0x8, addend: 0x0, symName: __ZNSt8__format29__failed_to_parse_format_specEv, symObjAddr: 0xF74, symBinAddr: 0x10000CDC4, symSize: 0x14 }
  - { offset: 0xA07AF, size: 0x8, addend: 0x0, symName: __ZNSt8__format33__invalid_arg_id_in_format_stringEv, symObjAddr: 0xF60, symBinAddr: 0x10000CDB0, symSize: 0x14 }
  - { offset: 0xA07C7, size: 0x8, addend: 0x0, symName: __ZNSt8__format39__conflicting_indexing_in_format_stringEv, symObjAddr: 0xF4C, symBinAddr: 0x10000CD9C, symSize: 0x14 }
  - { offset: 0xA07DF, size: 0x8, addend: 0x0, symName: __ZNSt8__format40__unmatched_right_brace_in_format_stringEv, symObjAddr: 0xF38, symBinAddr: 0x10000CD88, symSize: 0x14 }
  - { offset: 0xA07F7, size: 0x8, addend: 0x0, symName: __ZNSt8__format39__unmatched_left_brace_in_format_stringEv, symObjAddr: 0xF24, symBinAddr: 0x10000CD74, symSize: 0x14 }
  - { offset: 0xA080F, size: 0x8, addend: 0x0, symName: __ZSt20__throw_format_errorPKc, symObjAddr: 0xED0, symBinAddr: 0x10000CD20, symSize: 0x54 }
  - { offset: 0xA0863, size: 0x8, addend: 0x0, symName: __ZNSt12format_errorD0Ev, symObjAddr: 0xEA8, symBinAddr: 0x10000CCF8, symSize: 0x28 }
  - { offset: 0xA088D, size: 0x8, addend: 0x0, symName: __ZNSt12format_errorD1Ev, symObjAddr: 0xE74, symBinAddr: 0x10000CCC4, symSize: 0x34 }
  - { offset: 0xA08DA, size: 0x8, addend: 0x0, symName: __ZNSt12format_errorC1EPKc, symObjAddr: 0xE38, symBinAddr: 0x10000CC88, symSize: 0x3C }
  - { offset: 0xA0905, size: 0x8, addend: 0x0, symName: __ZNSt8__detail25__from_chars_alnum_to_valILb0EEEhh, symObjAddr: 0xE14, symBinAddr: 0x10000CC64, symSize: 0x24 }
  - { offset: 0xA093D, size: 0x8, addend: 0x0, symName: __ZNSt9__unicode9__v15_1_031_Grapheme_cluster_iterator_base20_M_update_incb_stateEDiNS0_13_Gcb_propertyE, symObjAddr: 0xDD4, symBinAddr: 0x10000CC24, symSize: 0x40 }
  - { offset: 0xA0981, size: 0x8, addend: 0x0, symName: __ZNSt9__unicode9__v15_1_031_Grapheme_cluster_iterator_base18_M_update_ri_countENS0_13_Gcb_propertyE, symObjAddr: 0xD8C, symBinAddr: 0x10000CBDC, symSize: 0x48 }
  - { offset: 0xA09BC, size: 0x8, addend: 0x0, symName: __ZNSt9__unicode9__v15_1_031_Grapheme_cluster_iterator_base26_M_update_xpicto_seq_stateEDiNS0_13_Gcb_propertyE, symObjAddr: 0xC8C, symBinAddr: 0x10000CADC, symSize: 0x100 }
  - { offset: 0xA0A19, size: 0x8, addend: 0x0, symName: __ZNSt9__unicode9__v15_1_031_Grapheme_cluster_iterator_base8_M_resetEDiNS0_13_Gcb_propertyE, symObjAddr: 0xC40, symBinAddr: 0x10000CA90, symSize: 0x4C }
  - { offset: 0xA0A61, size: 0x8, addend: 0x0, symName: __ZNSt9__unicode9__v15_1_026__is_extended_pictographicEDi, symObjAddr: 0xBC8, symBinAddr: 0x10000CA18, symSize: 0x78 }
  - { offset: 0xA0ABD, size: 0x8, addend: 0x0, symName: __ZNSt9__unicode9__v15_1_015__incb_propertyEDi, symObjAddr: 0xB44, symBinAddr: 0x10000C994, symSize: 0x84 }
  - { offset: 0xA0B3B, size: 0x8, addend: 0x0, symName: __ZNSt9__unicode9__v15_1_016__is_incb_linkerEDi, symObjAddr: 0xAF4, symBinAddr: 0x10000C944, symSize: 0x50 }
  - { offset: 0xA0B97, size: 0x8, addend: 0x0, symName: __ZNSt9__unicode9__v15_1_033__grapheme_cluster_break_propertyEDi, symObjAddr: 0xA88, symBinAddr: 0x10000C8D8, symSize: 0x6C }
  - { offset: 0xA0C15, size: 0x8, addend: 0x0, symName: __ZNSt9__unicode9__v15_1_013__field_widthEDi, symObjAddr: 0xA10, symBinAddr: 0x10000C860, symSize: 0x78 }
  - { offset: 0xA0C75, size: 0x8, addend: 0x0, symName: __ZNKSt9__unicode5_ReplclEv, symObjAddr: 0x9FC, symBinAddr: 0x10000C84C, symSize: 0x14 }
  - { offset: 0xA0C9B, size: 0x8, addend: 0x0, symName: __ZNSt9__unicode17__is_scalar_valueEDi, symObjAddr: 0x9A4, symBinAddr: 0x10000C7F4, symSize: 0x58 }
  - { offset: 0xA0CC8, size: 0x8, addend: 0x0, symName: __ZNKSt8__detail16__extent_storageILm18446744073709551615EE9_M_extentEv, symObjAddr: 0x98C, symBinAddr: 0x10000C7DC, symSize: 0x18 }
  - { offset: 0xA0D19, size: 0x8, addend: 0x0, symName: __ZNSt8__detail16__extent_storageILm18446744073709551615EEC1Em, symObjAddr: 0x968, symBinAddr: 0x10000C7B8, symSize: 0x24 }
  - { offset: 0xA0D44, size: 0x8, addend: 0x0, symName: __ZSt11__bit_widthIjEiT_, symObjAddr: 0x920, symBinAddr: 0x10000C788, symSize: 0x30 }
  - { offset: 0xA0D88, size: 0x8, addend: 0x0, symName: __ZSt8to_charsPcS_mi, symObjAddr: 0x8EC, symBinAddr: 0x10000C754, symSize: 0x34 }
  - { offset: 0xA0DE5, size: 0x8, addend: 0x0, symName: __ZNSt8__detail14__to_chars_lenIyEEjT_i, symObjAddr: 0x810, symBinAddr: 0x10000C678, symSize: 0xDC }
  - { offset: 0xA0E67, size: 0x8, addend: 0x0, symName: __ZNSt8__detail14__to_chars_lenImEEjT_i, symObjAddr: 0x734, symBinAddr: 0x10000C59C, symSize: 0xDC }
  - { offset: 0xA0EE9, size: 0x8, addend: 0x0, symName: __ZNSt8__detail14__to_chars_lenIjEEjT_i, symObjAddr: 0x65C, symBinAddr: 0x10000C4C4, symSize: 0xD8 }
  - { offset: 0xA0FFC, size: 0x8, addend: 0x0, symName: __ZNSt7__cxx1112basic_stringIcSt11char_traitsIcESaIcEEC1Ev, symObjAddr: 0x4D4, symBinAddr: 0x10000C418, symSize: 0xAC }
  - { offset: 0xA10C7, size: 0x8, addend: 0x0, symName: __ZSt10__sv_checkmmPKc, symObjAddr: 0x458, symBinAddr: 0x10000C3BC, symSize: 0x5C }
  - { offset: 0xA1118, size: 0x8, addend: 0x0, symName: __ZL18__gthread_active_pv, symObjAddr: 0x450, symBinAddr: 0x10000C3B4, symSize: 0x8 }
  - { offset: 0xA1130, size: 0x8, addend: 0x0, symName: __ZNSt11char_traitsIcE6assignEPcmc, symObjAddr: 0x3DC, symBinAddr: 0x10000C340, symSize: 0x74 }
  - { offset: 0xA1196, size: 0x8, addend: 0x0, symName: __ZNSt11char_traitsIcE4moveEPcPKcm, symObjAddr: 0x2FC, symBinAddr: 0x10000C2D8, symSize: 0x68 }
  - { offset: 0xA11FC, size: 0x8, addend: 0x0, symName: __ZNSt11char_traitsIcE4findEPKcmRS1_, symObjAddr: 0x28C, symBinAddr: 0x10000C268, symSize: 0x70 }
  - { offset: 0xA1262, size: 0x8, addend: 0x0, symName: __ZNSt11char_traitsIcE2eqERKcS2_, symObjAddr: 0xF8, symBinAddr: 0x10000C238, symSize: 0x30 }
  - { offset: 0xA129D, size: 0x8, addend: 0x0, symName: __ZN9__gnu_cxx5__ops15__val_less_iterEv, symObjAddr: 0xA4, symBinAddr: 0x10000C230, symSize: 0x8 }
  - { offset: 0xA12B5, size: 0x8, addend: 0x0, symName: __ZN9__gnu_cxx5__ops15__iter_less_valEv, symObjAddr: 0x9C, symBinAddr: 0x10000C228, symSize: 0x8 }
  - { offset: 0xA12CD, size: 0x8, addend: 0x0, symName: __ZStltSt15strong_orderingNSt9__cmp_cat8__unspecE, symObjAddr: 0x78, symBinAddr: 0x10000C204, symSize: 0x24 }
  - { offset: 0xA1300, size: 0x8, addend: 0x0, symName: __ZSteqSt15strong_orderingNSt9__cmp_cat8__unspecE, symObjAddr: 0x54, symBinAddr: 0x10000C1E0, symSize: 0x24 }
  - { offset: 0xB1D8B, size: 0x8, addend: 0x0, symName: __ZN11constants_wL8gResPathE, symObjAddr: 0x2F98, symBinAddr: 0x100054060, symSize: 0x0 }
  - { offset: 0xB1D9B, size: 0x8, addend: 0x0, symName: __ZN11constants_wL6bg_strE, symObjAddr: 0xBED58, symBinAddr: 0x100054790, symSize: 0x0 }
  - { offset: 0xB1DAB, size: 0x8, addend: 0x0, symName: __ZN11constants_wL8ship_strE, symObjAddr: 0xBED78, symBinAddr: 0x1000547B0, symSize: 0x0 }
  - { offset: 0xB1DBB, size: 0x8, addend: 0x0, symName: __ZN11constants_wL6sign_0E, symObjAddr: 0xBED98, symBinAddr: 0x1000547D0, symSize: 0x0 }
  - { offset: 0xB1DCB, size: 0x8, addend: 0x0, symName: __ZN11constants_wL6sign_1E, symObjAddr: 0xBEDB8, symBinAddr: 0x1000547F0, symSize: 0x0 }
  - { offset: 0xB1DDB, size: 0x8, addend: 0x0, symName: __ZN11constants_wL6sign_2E, symObjAddr: 0xBEDD8, symBinAddr: 0x100054810, symSize: 0x0 }
  - { offset: 0xB1DEB, size: 0x8, addend: 0x0, symName: __ZN11constants_wL6sign_3E, symObjAddr: 0xBEDF8, symBinAddr: 0x100054830, symSize: 0x0 }
  - { offset: 0xB1DFB, size: 0x8, addend: 0x0, symName: __ZN11constants_wL6sign_4E, symObjAddr: 0xBEE18, symBinAddr: 0x100054850, symSize: 0x0 }
  - { offset: 0xB1E0B, size: 0x8, addend: 0x0, symName: __ZN11constants_wL6sign_5E, symObjAddr: 0xBEE38, symBinAddr: 0x100054870, symSize: 0x0 }
  - { offset: 0xB1E1B, size: 0x8, addend: 0x0, symName: __ZN11constants_wL6sign_6E, symObjAddr: 0xBEE58, symBinAddr: 0x100054890, symSize: 0x0 }
  - { offset: 0xB1E2B, size: 0x8, addend: 0x0, symName: __ZN11constants_wL6sign_7E, symObjAddr: 0xBEE78, symBinAddr: 0x1000548B0, symSize: 0x0 }
  - { offset: 0xB1E3B, size: 0x8, addend: 0x0, symName: __ZN11constants_wL6sign_8E, symObjAddr: 0xBEE98, symBinAddr: 0x1000548D0, symSize: 0x0 }
  - { offset: 0xB1E4B, size: 0x8, addend: 0x0, symName: __ZN11constants_wL6sign_9E, symObjAddr: 0xBEEB8, symBinAddr: 0x1000548F0, symSize: 0x0 }
  - { offset: 0xB1E5B, size: 0x8, addend: 0x0, symName: __ZN11constants_wL10sample_strE, symObjAddr: 0xBEED8, symBinAddr: 0x100054910, symSize: 0x0 }
  - { offset: 0xB1E6B, size: 0x8, addend: 0x0, symName: __ZN11constants_wL10player_strE, symObjAddr: 0xBEEF8, symBinAddr: 0x100054930, symSize: 0x0 }
  - { offset: 0xB1E7B, size: 0x8, addend: 0x0, symName: __ZN11constants_wL7orb_pngE, symObjAddr: 0xBEF18, symBinAddr: 0x100054950, symSize: 0x0 }
  - { offset: 0xB1E8B, size: 0x8, addend: 0x0, symName: __ZN11constants_wL7head_upE, symObjAddr: 0xBEF38, symBinAddr: 0x100054970, symSize: 0x0 }
  - { offset: 0xB1E9B, size: 0x8, addend: 0x0, symName: __ZN11constants_wL9head_downE, symObjAddr: 0xBEF58, symBinAddr: 0x100054990, symSize: 0x0 }
  - { offset: 0xB1EAB, size: 0x8, addend: 0x0, symName: __ZN11constants_wL9head_leftE, symObjAddr: 0xBEF78, symBinAddr: 0x1000549B0, symSize: 0x0 }
  - { offset: 0xB1EBB, size: 0x8, addend: 0x0, symName: __ZN11constants_wL10head_rightE, symObjAddr: 0xBEF98, symBinAddr: 0x1000549D0, symSize: 0x0 }
  - { offset: 0xB1ECB, size: 0x8, addend: 0x0, symName: __ZN11constants_wL8tail_verE, symObjAddr: 0xBEFB8, symBinAddr: 0x1000549F0, symSize: 0x0 }
  - { offset: 0xB1EDB, size: 0x8, addend: 0x0, symName: __ZN11constants_wL8tail_horE, symObjAddr: 0xBEFD8, symBinAddr: 0x100054A10, symSize: 0x0 }
  - { offset: 0xB1FE2, size: 0x8, addend: 0x0, symName: __ZN9constantsL8gResPathE, symObjAddr: 0x2FB8, symBinAddr: 0x100054080, symSize: 0x0 }
  - { offset: 0xB1FF2, size: 0x8, addend: 0x0, symName: __ZN9constantsL6bg_strE, symObjAddr: 0xBEFF8, symBinAddr: 0x100054A30, symSize: 0x0 }
  - { offset: 0xB2002, size: 0x8, addend: 0x0, symName: __ZN9constantsL8ship_strE, symObjAddr: 0xBF018, symBinAddr: 0x100054A50, symSize: 0x0 }
  - { offset: 0xB2012, size: 0x8, addend: 0x0, symName: __ZN9constantsL6sign_0E, symObjAddr: 0xBF038, symBinAddr: 0x100054A70, symSize: 0x0 }
  - { offset: 0xB2022, size: 0x8, addend: 0x0, symName: __ZN9constantsL6sign_1E, symObjAddr: 0xBF058, symBinAddr: 0x100054A90, symSize: 0x0 }
  - { offset: 0xB2032, size: 0x8, addend: 0x0, symName: __ZN9constantsL6sign_2E, symObjAddr: 0xBF078, symBinAddr: 0x100054AB0, symSize: 0x0 }
  - { offset: 0xB2042, size: 0x8, addend: 0x0, symName: __ZN9constantsL6sign_3E, symObjAddr: 0xBF098, symBinAddr: 0x100054AD0, symSize: 0x0 }
  - { offset: 0xB2052, size: 0x8, addend: 0x0, symName: __ZN9constantsL6sign_4E, symObjAddr: 0xBF0B8, symBinAddr: 0x100054AF0, symSize: 0x0 }
  - { offset: 0xB2062, size: 0x8, addend: 0x0, symName: __ZN9constantsL6sign_5E, symObjAddr: 0xBF0D8, symBinAddr: 0x100054B10, symSize: 0x0 }
  - { offset: 0xB2072, size: 0x8, addend: 0x0, symName: __ZN9constantsL6sign_6E, symObjAddr: 0xBF0F8, symBinAddr: 0x100054B30, symSize: 0x0 }
  - { offset: 0xB2082, size: 0x8, addend: 0x0, symName: __ZN9constantsL6sign_7E, symObjAddr: 0xBF118, symBinAddr: 0x100054B50, symSize: 0x0 }
  - { offset: 0xB2092, size: 0x8, addend: 0x0, symName: __ZN9constantsL6sign_8E, symObjAddr: 0xBF138, symBinAddr: 0x100054B70, symSize: 0x0 }
  - { offset: 0xB20A2, size: 0x8, addend: 0x0, symName: __ZN9constantsL6sign_9E, symObjAddr: 0xBF158, symBinAddr: 0x100054B90, symSize: 0x0 }
  - { offset: 0xB20B2, size: 0x8, addend: 0x0, symName: __ZN9constantsL10sample_strE, symObjAddr: 0xBF178, symBinAddr: 0x100054BB0, symSize: 0x0 }
  - { offset: 0xB20C2, size: 0x8, addend: 0x0, symName: __ZN9constantsL13standard_fontE, symObjAddr: 0xBF198, symBinAddr: 0x100054BD0, symSize: 0x0 }
  - { offset: 0xB2C86, size: 0x8, addend: 0x0, symName: __GLOBAL__sub_I_food.cpp, symObjAddr: 0x3B48, symBinAddr: 0x100020044, symSize: 0x14 }
  - { offset: 0xB2CA2, size: 0x8, addend: 0x0, symName: __ZNSt15_Sp_counted_ptrIPN4game4FoodELN9__gnu_cxx12_Lock_policyE2EE14_M_get_deleterERKSt9type_info, symObjAddr: 0x2C4C, symBinAddr: 0x10001F79C, symSize: 0x18 }
  - { offset: 0xB2CD5, size: 0x8, addend: 0x0, symName: __ZNSt15_Sp_counted_ptrIPN4game4FoodELN9__gnu_cxx12_Lock_policyE2EE10_M_destroyEv, symObjAddr: 0x2C24, symBinAddr: 0x10001F774, symSize: 0x28 }
  - { offset: 0xB2CFF, size: 0x8, addend: 0x0, symName: __ZNSt15_Sp_counted_ptrIPN4game4FoodELN9__gnu_cxx12_Lock_policyE2EE10_M_disposeEv, symObjAddr: 0x2BEC, symBinAddr: 0x10001F73C, symSize: 0x38 }
  - { offset: 0xB2D25, size: 0x8, addend: 0x0, symName: __Z41__static_initialization_and_destruction_0v, symObjAddr: 0x32B8, symBinAddr: 0x10001F7B4, symSize: 0x890 }
  - { offset: 0xB2DCD, size: 0x8, addend: 0x0, symName: __ZNSt15_Sp_counted_ptrIPN4game4FoodELN9__gnu_cxx12_Lock_policyE2EED0Ev, symObjAddr: 0x2BC4, symBinAddr: 0x10001F714, symSize: 0x28 }
  - { offset: 0xB2DF7, size: 0x8, addend: 0x0, symName: __ZNSt15_Sp_counted_ptrIPN4game4FoodELN9__gnu_cxx12_Lock_policyE2EED1Ev, symObjAddr: 0x2B90, symBinAddr: 0x10001F6E0, symSize: 0x34 }
  - { offset: 0xB2E45, size: 0x8, addend: 0x0, symName: __ZNSt15_Sp_counted_ptrIPN4game4FoodELN9__gnu_cxx12_Lock_policyE2EEC1ES2_, symObjAddr: 0x2A40, symBinAddr: 0x10001F69C, symSize: 0x44 }
  - { offset: 0xB2EA5, size: 0x8, addend: 0x0, symName: __ZNSt14__shared_countILN9__gnu_cxx12_Lock_policyE2EEC1IPN4game4FoodEEET_, symObjAddr: 0x2880, symBinAddr: 0x10001F5FC, symSize: 0xA0 }
  - { offset: 0xB2EDD, size: 0x8, addend: 0x0, symName: __ZNKSt12__shared_ptrIN4game4FoodELN9__gnu_cxx12_Lock_policyE2EE3getEv, symObjAddr: 0x2588, symBinAddr: 0x10001F5E4, symSize: 0x18 }
  - { offset: 0xB2F07, size: 0x8, addend: 0x0, symName: __ZNSt12__shared_ptrIN4game4FoodELN9__gnu_cxx12_Lock_policyE2EE31_M_enable_shared_from_this_withIS1_S1_EENSt9enable_ifIXntsrNS4_15__has_esft_baseIT0_vEE5valueEvE4typeEPT_, symObjAddr: 0x2528, symBinAddr: 0x10001F5CC, symSize: 0x18 }
  - { offset: 0xB2F82, size: 0x8, addend: 0x0, symName: __ZNSt14__shared_countILN9__gnu_cxx12_Lock_policyE2EEC1IPN4game4FoodEEET_St17integral_constantIbLb0EE, symObjAddr: 0x24FC, symBinAddr: 0x10001F5A0, symSize: 0x2C }
  - { offset: 0xB2FC3, size: 0x8, addend: 0x0, symName: __ZNKSt19__shared_ptr_accessIN4game4FoodELN9__gnu_cxx12_Lock_policyE2ELb0ELb0EE6_M_getEv, symObjAddr: 0x21D8, symBinAddr: 0x10001F584, symSize: 0x1C }
  - { offset: 0xB301E, size: 0x8, addend: 0x0, symName: __ZNSt12__shared_ptrIN6engine6SpriteELN9__gnu_cxx12_Lock_policyE2EEC2IN4game4FoodEvEERKS_IT_LS3_2EE, symObjAddr: 0x2190, symBinAddr: 0x10001F53C, symSize: 0x48 }
  - { offset: 0xB3087, size: 0x8, addend: 0x0, symName: __ZNSt12__shared_ptrIN4game4FoodELN9__gnu_cxx12_Lock_policyE2EEC2IS1_vEEPT_, symObjAddr: 0x214C, symBinAddr: 0x10001F4F8, symSize: 0x44 }
  - { offset: 0xB30BF, size: 0x8, addend: 0x0, symName: __ZNKSt19__shared_ptr_accessIN4game4FoodELN9__gnu_cxx12_Lock_policyE2ELb0ELb0EEptEv, symObjAddr: 0x1CE8, symBinAddr: 0x10001F4DC, symSize: 0x1C }
  - { offset: 0xB311A, size: 0x8, addend: 0x0, symName: __ZNSt10shared_ptrIN6engine6SpriteEEC1IN4game4FoodEvEERKS_IT_E, symObjAddr: 0x1CC0, symBinAddr: 0x10001F4B4, symSize: 0x28 }
  - { offset: 0xB3182, size: 0x8, addend: 0x0, symName: __ZNSt10shared_ptrIN4game4FoodEEC1IS1_vEEPT_, symObjAddr: 0x1C98, symBinAddr: 0x10001F48C, symSize: 0x28 }
  - { offset: 0xB31BA, size: 0x8, addend: 0x0, symName: __ZN4game4Food6updateESt6vectorISt10shared_ptrIN6engine6SpriteEESaIS5_EE, symObjAddr: 0x1728, symBinAddr: 0x10001F42C, symSize: 0x60 }
  - { offset: 0xB31F1, size: 0x8, addend: 0x0, symName: __ZN4game4Food4makeEffffNSt7__cxx1112basic_stringIcSt11char_traitsIcESaIcEEES6_, symObjAddr: 0x1584, symBinAddr: 0x10001F288, symSize: 0x1A4 }
  - { offset: 0xB32FF, size: 0x8, addend: 0x0, symName: __ZN4game4FoodC1EffffNSt7__cxx1112basic_stringIcSt11char_traitsIcESaIcEEES6_, symObjAddr: 0x13B0, symBinAddr: 0x10001F1C8, symSize: 0xC0 }
  - { offset: 0xB3368, size: 0x8, addend: 0x0, symName: __ZN4game4FoodC2EffffNSt7__cxx1112basic_stringIcSt11char_traitsIcESaIcEEES6_, symObjAddr: 0x12F0, symBinAddr: 0x10001F108, symSize: 0xC0 }
  - { offset: 0xB33F1, size: 0x8, addend: 0x0, symName: __ZN4game4FoodD0Ev, symObjAddr: 0x12C8, symBinAddr: 0x10001F0E0, symSize: 0x28 }
  - { offset: 0xB341B, size: 0x8, addend: 0x0, symName: __ZN4game4FoodD1Ev, symObjAddr: 0x1298, symBinAddr: 0x10001F0B0, symSize: 0x30 }
  - { offset: 0xB3465, size: 0x8, addend: 0x0, symName: __ZN6engine6SpriteD2Ev, symObjAddr: 0x4C4, symBinAddr: 0x10001F070, symSize: 0x40 }
  - { offset: 0xB34DB, size: 0x8, addend: 0x0, symName: __ZL18__gthread_active_pv, symObjAddr: 0x138, symBinAddr: 0x10001F068, symSize: 0x8 }
  - { offset: 0xD1CF8, size: 0x8, addend: 0x0, symName: __ZN11constants_wL8gResPathE, symObjAddr: 0x5AE8, symBinAddr: 0x1000540A0, symSize: 0x0 }
  - { offset: 0xD1D08, size: 0x8, addend: 0x0, symName: __ZN11constants_wL6bg_strE, symObjAddr: 0xF3788, symBinAddr: 0x100054BF0, symSize: 0x0 }
  - { offset: 0xD1D18, size: 0x8, addend: 0x0, symName: __ZN11constants_wL8ship_strE, symObjAddr: 0xF37A8, symBinAddr: 0x100054C10, symSize: 0x0 }
  - { offset: 0xD1D28, size: 0x8, addend: 0x0, symName: __ZN11constants_wL6sign_0E, symObjAddr: 0xF37C8, symBinAddr: 0x100054C30, symSize: 0x0 }
  - { offset: 0xD1D38, size: 0x8, addend: 0x0, symName: __ZN11constants_wL6sign_1E, symObjAddr: 0xF37E8, symBinAddr: 0x100054C50, symSize: 0x0 }
  - { offset: 0xD1D48, size: 0x8, addend: 0x0, symName: __ZN11constants_wL6sign_2E, symObjAddr: 0xF3808, symBinAddr: 0x100054C70, symSize: 0x0 }
  - { offset: 0xD1D58, size: 0x8, addend: 0x0, symName: __ZN11constants_wL6sign_3E, symObjAddr: 0xF3828, symBinAddr: 0x100054C90, symSize: 0x0 }
  - { offset: 0xD1D68, size: 0x8, addend: 0x0, symName: __ZN11constants_wL6sign_4E, symObjAddr: 0xF3848, symBinAddr: 0x100054CB0, symSize: 0x0 }
  - { offset: 0xD1D78, size: 0x8, addend: 0x0, symName: __ZN11constants_wL6sign_5E, symObjAddr: 0xF3868, symBinAddr: 0x100054CD0, symSize: 0x0 }
  - { offset: 0xD1D88, size: 0x8, addend: 0x0, symName: __ZN11constants_wL6sign_6E, symObjAddr: 0xF3888, symBinAddr: 0x100054CF0, symSize: 0x0 }
  - { offset: 0xD1D98, size: 0x8, addend: 0x0, symName: __ZN11constants_wL6sign_7E, symObjAddr: 0xF38A8, symBinAddr: 0x100054D10, symSize: 0x0 }
  - { offset: 0xD1DA8, size: 0x8, addend: 0x0, symName: __ZN11constants_wL6sign_8E, symObjAddr: 0xF38C8, symBinAddr: 0x100054D30, symSize: 0x0 }
  - { offset: 0xD1DB8, size: 0x8, addend: 0x0, symName: __ZN11constants_wL6sign_9E, symObjAddr: 0xF38E8, symBinAddr: 0x100054D50, symSize: 0x0 }
  - { offset: 0xD1DC8, size: 0x8, addend: 0x0, symName: __ZN11constants_wL10sample_strE, symObjAddr: 0xF3908, symBinAddr: 0x100054D70, symSize: 0x0 }
  - { offset: 0xD1DD8, size: 0x8, addend: 0x0, symName: __ZN11constants_wL10player_strE, symObjAddr: 0xF3928, symBinAddr: 0x100054D90, symSize: 0x0 }
  - { offset: 0xD1DE8, size: 0x8, addend: 0x0, symName: __ZN11constants_wL7orb_pngE, symObjAddr: 0xF3948, symBinAddr: 0x100054DB0, symSize: 0x0 }
  - { offset: 0xD1DF8, size: 0x8, addend: 0x0, symName: __ZN11constants_wL7head_upE, symObjAddr: 0xF3968, symBinAddr: 0x100054DD0, symSize: 0x0 }
  - { offset: 0xD1E08, size: 0x8, addend: 0x0, symName: __ZN11constants_wL9head_downE, symObjAddr: 0xF3988, symBinAddr: 0x100054DF0, symSize: 0x0 }
  - { offset: 0xD1E18, size: 0x8, addend: 0x0, symName: __ZN11constants_wL9head_leftE, symObjAddr: 0xF39A8, symBinAddr: 0x100054E10, symSize: 0x0 }
  - { offset: 0xD1E28, size: 0x8, addend: 0x0, symName: __ZN11constants_wL10head_rightE, symObjAddr: 0xF39C8, symBinAddr: 0x100054E30, symSize: 0x0 }
  - { offset: 0xD1E38, size: 0x8, addend: 0x0, symName: __ZN11constants_wL8tail_verE, symObjAddr: 0xF39E8, symBinAddr: 0x100054E50, symSize: 0x0 }
  - { offset: 0xD1E48, size: 0x8, addend: 0x0, symName: __ZN11constants_wL8tail_horE, symObjAddr: 0xF3A08, symBinAddr: 0x100054E70, symSize: 0x0 }
  - { offset: 0xD1F4F, size: 0x8, addend: 0x0, symName: __ZN9constantsL8gResPathE, symObjAddr: 0x5B08, symBinAddr: 0x1000540C0, symSize: 0x0 }
  - { offset: 0xD1F5F, size: 0x8, addend: 0x0, symName: __ZN9constantsL6bg_strE, symObjAddr: 0xF3A28, symBinAddr: 0x100054E90, symSize: 0x0 }
  - { offset: 0xD1F6F, size: 0x8, addend: 0x0, symName: __ZN9constantsL8ship_strE, symObjAddr: 0xF3A48, symBinAddr: 0x100054EB0, symSize: 0x0 }
  - { offset: 0xD1F7F, size: 0x8, addend: 0x0, symName: __ZN9constantsL6sign_0E, symObjAddr: 0xF3A68, symBinAddr: 0x100054ED0, symSize: 0x0 }
  - { offset: 0xD1F8F, size: 0x8, addend: 0x0, symName: __ZN9constantsL6sign_1E, symObjAddr: 0xF3A88, symBinAddr: 0x100054EF0, symSize: 0x0 }
  - { offset: 0xD1F9F, size: 0x8, addend: 0x0, symName: __ZN9constantsL6sign_2E, symObjAddr: 0xF3AA8, symBinAddr: 0x100054F10, symSize: 0x0 }
  - { offset: 0xD1FAF, size: 0x8, addend: 0x0, symName: __ZN9constantsL6sign_3E, symObjAddr: 0xF3AC8, symBinAddr: 0x100054F30, symSize: 0x0 }
  - { offset: 0xD1FBF, size: 0x8, addend: 0x0, symName: __ZN9constantsL6sign_4E, symObjAddr: 0xF3AE8, symBinAddr: 0x100054F50, symSize: 0x0 }
  - { offset: 0xD1FCF, size: 0x8, addend: 0x0, symName: __ZN9constantsL6sign_5E, symObjAddr: 0xF3B08, symBinAddr: 0x100054F70, symSize: 0x0 }
  - { offset: 0xD1FDF, size: 0x8, addend: 0x0, symName: __ZN9constantsL6sign_6E, symObjAddr: 0xF3B28, symBinAddr: 0x100054F90, symSize: 0x0 }
  - { offset: 0xD1FEF, size: 0x8, addend: 0x0, symName: __ZN9constantsL6sign_7E, symObjAddr: 0xF3B48, symBinAddr: 0x100054FB0, symSize: 0x0 }
  - { offset: 0xD1FFF, size: 0x8, addend: 0x0, symName: __ZN9constantsL6sign_8E, symObjAddr: 0xF3B68, symBinAddr: 0x100054FD0, symSize: 0x0 }
  - { offset: 0xD200F, size: 0x8, addend: 0x0, symName: __ZN9constantsL6sign_9E, symObjAddr: 0xF3B88, symBinAddr: 0x100054FF0, symSize: 0x0 }
  - { offset: 0xD201F, size: 0x8, addend: 0x0, symName: __ZN9constantsL10sample_strE, symObjAddr: 0xF3BA8, symBinAddr: 0x100055010, symSize: 0x0 }
  - { offset: 0xD202F, size: 0x8, addend: 0x0, symName: __ZN9constantsL13standard_fontE, symObjAddr: 0xF3BC8, symBinAddr: 0x100055030, symSize: 0x0 }
  - { offset: 0xD2060, size: 0x8, addend: 0x0, symName: __ZStL8__ioinit, symObjAddr: 0xF3BE8, symBinAddr: 0x100055050, symSize: 0x0 }
  - { offset: 0xD28D9, size: 0x8, addend: 0x0, symName: __GLOBAL__sub_I_game.cpp, symObjAddr: 0x64B8, symBinAddr: 0x1000232C4, symSize: 0x14 }
  - { offset: 0xD28F1, size: 0x8, addend: 0x0, symName: __Z41__static_initialization_and_destruction_0v, symObjAddr: 0x5C00, symBinAddr: 0x100022A0C, symSize: 0x8B8 }
  - { offset: 0xD299D, size: 0x8, addend: 0x0, symName: __ZNSt15__new_allocatorISt13_Rb_tree_nodeISt10shared_ptrIN6engine10UI_ElementEEEE8allocateEmPKv, symObjAddr: 0x5700, symBinAddr: 0x10002297C, symSize: 0x90 }
  - { offset: 0xD2A13, size: 0x8, addend: 0x0, symName: __ZNSt15__new_allocatorISt13_Rb_tree_nodeISt10shared_ptrIN6engine6SpriteEEEE8allocateEmPKv, symObjAddr: 0x565C, symBinAddr: 0x1000228EC, symSize: 0x90 }
  - { offset: 0xD2BA3, size: 0x8, addend: 0x0, symName: __ZNSt8_Rb_treeISt10shared_ptrIN6engine10UI_ElementEES3_St9_IdentityIS3_ESt4lessIS3_ESaIS3_EE17_M_construct_nodeIJRKS3_EEEvPSt13_Rb_tree_nodeIS3_EDpOT_, symObjAddr: 0x5400, symBinAddr: 0x100022850, symSize: 0x9C }
  - { offset: 0xD2C31, size: 0x8, addend: 0x0, symName: __ZNSt8_Rb_treeISt10shared_ptrIN6engine10UI_ElementEES3_St9_IdentityIS3_ESt4lessIS3_ESaIS3_EE11_M_get_nodeEv, symObjAddr: 0x532C, symBinAddr: 0x10002277C, symSize: 0xD4 }
  - { offset: 0xD2CCE, size: 0x8, addend: 0x0, symName: __ZNSt8_Rb_treeISt10shared_ptrIN6engine6SpriteEES3_St9_IdentityIS3_ESt4lessIS3_ESaIS3_EE17_M_construct_nodeIJRKS3_EEEvPSt13_Rb_tree_nodeIS3_EDpOT_, symObjAddr: 0x525C, symBinAddr: 0x1000226E0, symSize: 0x9C }
  - { offset: 0xD2D5C, size: 0x8, addend: 0x0, symName: __ZNSt8_Rb_treeISt10shared_ptrIN6engine6SpriteEES3_St9_IdentityIS3_ESt4lessIS3_ESaIS3_EE11_M_get_nodeEv, symObjAddr: 0x5188, symBinAddr: 0x10002260C, symSize: 0xD4 }
  - { offset: 0xD2DF9, size: 0x8, addend: 0x0, symName: __ZNSt9_Any_data9_M_accessIZN4game4Game7restartEvEUlvE_EERT_v, symObjAddr: 0x5098, symBinAddr: 0x1000225F0, symSize: 0x1C }
  - { offset: 0xD2E28, size: 0x8, addend: 0x0, symName: __ZNSt14_Function_base13_Base_managerIZN4game4Game7restartEvEUlvE_E9_M_createIRKS3_EEvRSt9_Any_dataOT_St17integral_constantIbLb1EE, symObjAddr: 0x5030, symBinAddr: 0x100022588, symSize: 0x68 }
  - { offset: 0xD2E7A, size: 0x8, addend: 0x0, symName: __ZSt7forwardIRKZN4game4Game7restartEvEUlvE_EOT_RNSt16remove_referenceIS5_E4typeE, symObjAddr: 0x501C, symBinAddr: 0x100022574, symSize: 0x14 }
  - { offset: 0xD2EB0, size: 0x8, addend: 0x0, symName: __ZNSt9_Any_data9_M_accessIZN4game4Game5startEvEUlvE_EERT_v, symObjAddr: 0x5000, symBinAddr: 0x100022558, symSize: 0x1C }
  - { offset: 0xD2EDF, size: 0x8, addend: 0x0, symName: __ZNSt14_Function_base13_Base_managerIZN4game4Game5startEvEUlvE_E9_M_createIRKS3_EEvRSt9_Any_dataOT_St17integral_constantIbLb1EE, symObjAddr: 0x4F98, symBinAddr: 0x1000224F0, symSize: 0x68 }
  - { offset: 0xD2F31, size: 0x8, addend: 0x0, symName: __ZSt7forwardIRKZN4game4Game5startEvEUlvE_EOT_RNSt16remove_referenceIS5_E4typeE, symObjAddr: 0x4F84, symBinAddr: 0x1000224DC, symSize: 0x14 }
  - { offset: 0xD2F67, size: 0x8, addend: 0x0, symName: __ZNSt8_Rb_treeISt10shared_ptrIN6engine10UI_ElementEES3_St9_IdentityIS3_ESt4lessIS3_ESaIS3_EE14_M_create_nodeIJRKS3_EEEPSt13_Rb_tree_nodeIS3_EDpOT_, symObjAddr: 0x4F44, symBinAddr: 0x10002249C, symSize: 0x40 }
  - { offset: 0xD2FC9, size: 0x8, addend: 0x0, symName: __ZSt7forwardIRPSt13_Rb_tree_nodeISt10shared_ptrIN6engine10UI_ElementEEEEOT_RNSt16remove_referenceIS8_E4typeE, symObjAddr: 0x4F30, symBinAddr: 0x100022488, symSize: 0x14 }
  - { offset: 0xD2FFB, size: 0x8, addend: 0x0, symName: __ZStssIN6engine10UI_ElementES1_ESt15strong_orderingRKSt10shared_ptrIT_ERKS3_IT0_E, symObjAddr: 0x4EF0, symBinAddr: 0x100022448, symSize: 0x40 }
  - { offset: 0xD305E, size: 0x8, addend: 0x0, symName: __ZNKSt17compare_three_wayclIPN6engine10UI_ElementES3_EEDaOT_OT0_, symObjAddr: 0x4E44, symBinAddr: 0x10002239C, symSize: 0xAC }
  - { offset: 0xD312D, size: 0x8, addend: 0x0, symName: __ZNSt8_Rb_treeISt10shared_ptrIN6engine6SpriteEES3_St9_IdentityIS3_ESt4lessIS3_ESaIS3_EE14_M_create_nodeIJRKS3_EEEPSt13_Rb_tree_nodeIS3_EDpOT_, symObjAddr: 0x4DCC, symBinAddr: 0x10002235C, symSize: 0x40 }
  - { offset: 0xD318F, size: 0x8, addend: 0x0, symName: __ZSt7forwardIRPSt18_Rb_tree_node_baseEOT_RNSt16remove_referenceIS3_E4typeE, symObjAddr: 0x4DB8, symBinAddr: 0x100022348, symSize: 0x14 }
  - { offset: 0xD31CF, size: 0x8, addend: 0x0, symName: __ZSt7forwardIRPSt13_Rb_tree_nodeISt10shared_ptrIN6engine6SpriteEEEEOT_RNSt16remove_referenceIS8_E4typeE, symObjAddr: 0x4DA4, symBinAddr: 0x100022334, symSize: 0x14 }
  - { offset: 0xD3201, size: 0x8, addend: 0x0, symName: __ZStssIN6engine6SpriteES1_ESt15strong_orderingRKSt10shared_ptrIT_ERKS3_IT0_E, symObjAddr: 0x4D64, symBinAddr: 0x1000222F4, symSize: 0x40 }
  - { offset: 0xD3259, size: 0x8, addend: 0x0, symName: __ZNKSt17compare_three_wayclIPN6engine6SpriteES3_EEDaOT_OT0_, symObjAddr: 0x4CB8, symBinAddr: 0x100022248, symSize: 0xAC }
  - { offset: 0xD333F, size: 0x8, addend: 0x0, symName: __ZNSt14_Function_base13_Base_managerIZN4game4Game7restartEvEUlvE_E10_M_destroyERSt9_Any_dataSt17integral_constantIbLb1EE, symObjAddr: 0x4B4C, symBinAddr: 0x100022224, symSize: 0x24 }
  - { offset: 0xD3371, size: 0x8, addend: 0x0, symName: __ZNSt14_Function_base13_Base_managerIZN4game4Game7restartEvEUlvE_E15_M_init_functorIRKS3_EEvRSt9_Any_dataOT_, symObjAddr: 0x4B10, symBinAddr: 0x1000221E8, symSize: 0x3C }
  - { offset: 0xD33B3, size: 0x8, addend: 0x0, symName: __ZSt13__invoke_implIvRZN4game4Game7restartEvEUlvE_JEET_St14__invoke_otherOT0_DpOT1_, symObjAddr: 0x4AE8, symBinAddr: 0x1000221C0, symSize: 0x28 }
  - { offset: 0xD3404, size: 0x8, addend: 0x0, symName: __ZSt7forwardIRZN4game4Game7restartEvEUlvE_EOT_RNSt16remove_referenceIS4_E4typeE, symObjAddr: 0x4AD4, symBinAddr: 0x1000221AC, symSize: 0x14 }
  - { offset: 0xD3436, size: 0x8, addend: 0x0, symName: __ZSt11__addressofIKZN4game4Game7restartEvEUlvE_EPT_RS4_, symObjAddr: 0x4AC0, symBinAddr: 0x100022198, symSize: 0x14 }
  - { offset: 0xD346C, size: 0x8, addend: 0x0, symName: __ZNKSt9_Any_data9_M_accessIZN4game4Game7restartEvEUlvE_EERKT_v, symObjAddr: 0x4AA4, symBinAddr: 0x10002217C, symSize: 0x1C }
  - { offset: 0xD349B, size: 0x8, addend: 0x0, symName: __ZNSt14_Function_base13_Base_managerIZN4game4Game5startEvEUlvE_E10_M_destroyERSt9_Any_dataSt17integral_constantIbLb1EE, symObjAddr: 0x4A80, symBinAddr: 0x100022158, symSize: 0x24 }
  - { offset: 0xD34CD, size: 0x8, addend: 0x0, symName: __ZNSt14_Function_base13_Base_managerIZN4game4Game5startEvEUlvE_E15_M_init_functorIRKS3_EEvRSt9_Any_dataOT_, symObjAddr: 0x4A44, symBinAddr: 0x10002211C, symSize: 0x3C }
  - { offset: 0xD350F, size: 0x8, addend: 0x0, symName: __ZSt13__invoke_implIvRZN4game4Game5startEvEUlvE_JEET_St14__invoke_otherOT0_DpOT1_, symObjAddr: 0x4A1C, symBinAddr: 0x1000220F4, symSize: 0x28 }
  - { offset: 0xD3560, size: 0x8, addend: 0x0, symName: __ZSt7forwardIRZN4game4Game5startEvEUlvE_EOT_RNSt16remove_referenceIS4_E4typeE, symObjAddr: 0x4A08, symBinAddr: 0x1000220E0, symSize: 0x14 }
  - { offset: 0xD3592, size: 0x8, addend: 0x0, symName: __ZSt11__addressofIKZN4game4Game5startEvEUlvE_EPT_RS4_, symObjAddr: 0x49F4, symBinAddr: 0x1000220CC, symSize: 0x14 }
  - { offset: 0xD35C8, size: 0x8, addend: 0x0, symName: __ZNKSt9_Any_data9_M_accessIZN4game4Game5startEvEUlvE_EERKT_v, symObjAddr: 0x49D8, symBinAddr: 0x1000220B0, symSize: 0x1C }
  - { offset: 0xD3605, size: 0x8, addend: 0x0, symName: __ZSt7forwardISt17_Rb_tree_iteratorISt10shared_ptrIN6engine10UI_ElementEEEEOT_RNSt16remove_referenceIS6_E4typeE, symObjAddr: 0x499C, symBinAddr: 0x10002209C, symSize: 0x14 }
  - { offset: 0xD3646, size: 0x8, addend: 0x0, symName: __ZNKSt8_Rb_treeISt10shared_ptrIN6engine10UI_ElementEES3_St9_IdentityIS3_ESt4lessIS3_ESaIS3_EE11_Alloc_nodeclIRKS3_EEPSt13_Rb_tree_nodeIS3_EOT_, symObjAddr: 0x4960, symBinAddr: 0x100022060, symSize: 0x3C }
  - { offset: 0xD3686, size: 0x8, addend: 0x0, symName: __ZNSt8_Rb_treeISt10shared_ptrIN6engine10UI_ElementEES3_St9_IdentityIS3_ESt4lessIS3_ESaIS3_EE6_S_keyEPKSt18_Rb_tree_node_base, symObjAddr: 0x4944, symBinAddr: 0x100022044, symSize: 0x1C }
  - { offset: 0xD36B4, size: 0x8, addend: 0x0, symName: __ZNSt17_Rb_tree_iteratorISt10shared_ptrIN6engine10UI_ElementEEEmmEv, symObjAddr: 0x4914, symBinAddr: 0x100022014, symSize: 0x30 }
  - { offset: 0xD3726, size: 0x8, addend: 0x0, symName: __ZNSt4pairIPSt18_Rb_tree_node_baseS1_EC1IRPSt13_Rb_tree_nodeISt10shared_ptrIN6engine10UI_ElementEEERS1_EEOT_OT0_, symObjAddr: 0x48CC, symBinAddr: 0x100021FCC, symSize: 0x48 }
  - { offset: 0xD3773, size: 0x8, addend: 0x0, symName: __ZSteqRKSt17_Rb_tree_iteratorISt10shared_ptrIN6engine10UI_ElementEEES6_, symObjAddr: 0x489C, symBinAddr: 0x100021F9C, symSize: 0x30 }
  - { offset: 0xD37B2, size: 0x8, addend: 0x0, symName: __ZNSt8_Rb_treeISt10shared_ptrIN6engine10UI_ElementEES3_St9_IdentityIS3_ESt4lessIS3_ESaIS3_EE5beginEv, symObjAddr: 0x4874, symBinAddr: 0x100021F74, symSize: 0x28 }
  - { offset: 0xD37DC, size: 0x8, addend: 0x0, symName: __ZNKSt4lessISt10shared_ptrIN6engine10UI_ElementEEEclERKS3_S6_, symObjAddr: 0x480C, symBinAddr: 0x100021F3C, symSize: 0x38 }
  - { offset: 0xD3824, size: 0x8, addend: 0x0, symName: __ZNSt8_Rb_treeISt10shared_ptrIN6engine10UI_ElementEES3_St9_IdentityIS3_ESt4lessIS3_ESaIS3_EE6_S_keyEPKSt13_Rb_tree_nodeIS3_E, symObjAddr: 0x47E4, symBinAddr: 0x100021F14, symSize: 0x28 }
  - { offset: 0xD3852, size: 0x8, addend: 0x0, symName: __ZNSt8_Rb_treeISt10shared_ptrIN6engine10UI_ElementEES3_St9_IdentityIS3_ESt4lessIS3_ESaIS3_EE6_M_endEv, symObjAddr: 0x47CC, symBinAddr: 0x100021EFC, symSize: 0x18 }
  - { offset: 0xD3886, size: 0x8, addend: 0x0, symName: __ZSt7forwardISt17_Rb_tree_iteratorISt10shared_ptrIN6engine6SpriteEEEEOT_RNSt16remove_referenceIS6_E4typeE, symObjAddr: 0x479C, symBinAddr: 0x100021EE8, symSize: 0x14 }
  - { offset: 0xD38C7, size: 0x8, addend: 0x0, symName: __ZNKSt8_Rb_treeISt10shared_ptrIN6engine6SpriteEES3_St9_IdentityIS3_ESt4lessIS3_ESaIS3_EE11_Alloc_nodeclIRKS3_EEPSt13_Rb_tree_nodeIS3_EOT_, symObjAddr: 0x4760, symBinAddr: 0x100021EAC, symSize: 0x3C }
  - { offset: 0xD3941, size: 0x8, addend: 0x0, symName: __ZNSt4pairIPSt18_Rb_tree_node_baseS1_EC1ERKS1_S4_Qcl16_S_constructibleIRKT_RKT0_EE, symObjAddr: 0x4724, symBinAddr: 0x100021E70, symSize: 0x3C }
  - { offset: 0xD3975, size: 0x8, addend: 0x0, symName: __ZNSt8_Rb_treeISt10shared_ptrIN6engine6SpriteEES3_St9_IdentityIS3_ESt4lessIS3_ESaIS3_EE6_S_keyEPKSt18_Rb_tree_node_base, symObjAddr: 0x4708, symBinAddr: 0x100021E54, symSize: 0x1C }
  - { offset: 0xD39A3, size: 0x8, addend: 0x0, symName: __ZNSt17_Rb_tree_iteratorISt10shared_ptrIN6engine6SpriteEEEmmEv, symObjAddr: 0x46D8, symBinAddr: 0x100021E24, symSize: 0x30 }
  - { offset: 0xD3A15, size: 0x8, addend: 0x0, symName: __ZNSt4pairIPSt18_Rb_tree_node_baseS1_EC1IRPSt13_Rb_tree_nodeISt10shared_ptrIN6engine6SpriteEEERS1_EEOT_OT0_, symObjAddr: 0x4690, symBinAddr: 0x100021DDC, symSize: 0x48 }
  - { offset: 0xD3A62, size: 0x8, addend: 0x0, symName: __ZSteqRKSt17_Rb_tree_iteratorISt10shared_ptrIN6engine6SpriteEEES6_, symObjAddr: 0x4660, symBinAddr: 0x100021DAC, symSize: 0x30 }
  - { offset: 0xD3AA1, size: 0x8, addend: 0x0, symName: __ZNSt8_Rb_treeISt10shared_ptrIN6engine6SpriteEES3_St9_IdentityIS3_ESt4lessIS3_ESaIS3_EE5beginEv, symObjAddr: 0x4638, symBinAddr: 0x100021D84, symSize: 0x28 }
  - { offset: 0xD3ACB, size: 0x8, addend: 0x0, symName: __ZNKSt4lessISt10shared_ptrIN6engine6SpriteEEEclERKS3_S6_, symObjAddr: 0x45D0, symBinAddr: 0x100021D4C, symSize: 0x38 }
  - { offset: 0xD3B13, size: 0x8, addend: 0x0, symName: __ZNSt8_Rb_treeISt10shared_ptrIN6engine6SpriteEES3_St9_IdentityIS3_ESt4lessIS3_ESaIS3_EE6_S_keyEPKSt13_Rb_tree_nodeIS3_E, symObjAddr: 0x45A8, symBinAddr: 0x100021D24, symSize: 0x28 }
  - { offset: 0xD3B41, size: 0x8, addend: 0x0, symName: __ZNSt8_Rb_treeISt10shared_ptrIN6engine6SpriteEES3_St9_IdentityIS3_ESt4lessIS3_ESaIS3_EE6_M_endEv, symObjAddr: 0x4590, symBinAddr: 0x100021D0C, symSize: 0x18 }
  - { offset: 0xD3B6E, size: 0x8, addend: 0x0, symName: __ZSt4moveIRPFvRKSt9_Any_dataEEONSt16remove_referenceIT_E4typeEOS7_, symObjAddr: 0x4560, symBinAddr: 0x100021CF8, symSize: 0x14 }
  - { offset: 0xD3BA7, size: 0x8, addend: 0x0, symName: __ZSt4moveIRPFbRSt9_Any_dataRKS0_St18_Manager_operationEEONSt16remove_referenceIT_E4typeEOS9_, symObjAddr: 0x454C, symBinAddr: 0x100021CE4, symSize: 0x14 }
  - { offset: 0xD3BE0, size: 0x8, addend: 0x0, symName: __ZSt4moveIRSt9_Any_dataEONSt16remove_referenceIT_E4typeEOS3_, symObjAddr: 0x4538, symBinAddr: 0x100021CD0, symSize: 0x14 }
  - { offset: 0xD3C12, size: 0x8, addend: 0x0, symName: __ZNSt20__uninitialized_copyILb0EE13__uninit_copyIN9__gnu_cxx17__normal_iteratorIPKSt10shared_ptrIN6engine10UI_ElementEESt6vectorIS7_SaIS7_EEEEPS7_EET0_T_SG_SF_, symObjAddr: 0x44C0, symBinAddr: 0x100021CA4, symSize: 0x2C }
  - { offset: 0xD3C6D, size: 0x8, addend: 0x0, symName: __ZSt10_ConstructISt10shared_ptrIN6engine10UI_ElementEEJRKS3_EEvPT_DpOT0_, symObjAddr: 0x4434, symBinAddr: 0x100021C18, symSize: 0x8C }
  - { offset: 0xD3CD8, size: 0x8, addend: 0x0, symName: __ZNK9__gnu_cxx17__normal_iteratorIPKSt10shared_ptrIN6engine10UI_ElementEESt6vectorIS4_SaIS4_EEEdeEv, symObjAddr: 0x441C, symBinAddr: 0x100021C00, symSize: 0x18 }
  - { offset: 0xD3D02, size: 0x8, addend: 0x0, symName: __ZN9__gnu_cxx17__normal_iteratorIPKSt10shared_ptrIN6engine10UI_ElementEESt6vectorIS4_SaIS4_EEEppEv, symObjAddr: 0x43E0, symBinAddr: 0x100021BD8, symSize: 0x28 }
  - { offset: 0xD3D4B, size: 0x8, addend: 0x0, symName: __ZNSt14_Function_base13_Base_managerIZN4game4Game7restartEvEUlvE_E10_M_managerERSt9_Any_dataRKS5_St18_Manager_operation, symObjAddr: 0x3FE8, symBinAddr: 0x100021B18, symSize: 0xC0 }
  - { offset: 0xD3D9F, size: 0x8, addend: 0x0, symName: __ZNSt9_Any_data9_M_accessIPZN4game4Game7restartEvEUlvE_EERT_v, symObjAddr: 0x3FCC, symBinAddr: 0x100021AFC, symSize: 0x1C }
  - { offset: 0xD3DCE, size: 0x8, addend: 0x0, symName: __ZSt10__invoke_rIvRZN4game4Game7restartEvEUlvE_JEENSt9enable_ifIX16is_invocable_r_vIT_T0_JDpT1_EEES5_E4typeEOS6_DpOS7_, symObjAddr: 0x3F98, symBinAddr: 0x100021AC8, symSize: 0x34 }
  - { offset: 0xD3E0F, size: 0x8, addend: 0x0, symName: __ZNSt14_Function_base13_Base_managerIZN4game4Game7restartEvEUlvE_E14_M_get_pointerERKSt9_Any_data, symObjAddr: 0x3F70, symBinAddr: 0x100021AA0, symSize: 0x28 }
  - { offset: 0xD3E62, size: 0x8, addend: 0x0, symName: __ZNSt14_Function_base13_Base_managerIZN4game4Game7restartEvEUlvE_E9_M_createIS3_EEvRSt9_Any_dataOT_St17integral_constantIbLb1EE, symObjAddr: 0x3F08, symBinAddr: 0x100021A38, symSize: 0x68 }
  - { offset: 0xD3EAD, size: 0x8, addend: 0x0, symName: __ZNSt14_Function_base13_Base_managerIZN4game4Game5startEvEUlvE_E10_M_managerERSt9_Any_dataRKS5_St18_Manager_operation, symObjAddr: 0x3E48, symBinAddr: 0x100021978, symSize: 0xC0 }
  - { offset: 0xD3F01, size: 0x8, addend: 0x0, symName: __ZNSt9_Any_data9_M_accessIPZN4game4Game5startEvEUlvE_EERT_v, symObjAddr: 0x3E2C, symBinAddr: 0x10002195C, symSize: 0x1C }
  - { offset: 0xD3F37, size: 0x8, addend: 0x0, symName: __ZSt10__invoke_rIvRZN4game4Game5startEvEUlvE_JEENSt9enable_ifIX16is_invocable_r_vIT_T0_JDpT1_EEES5_E4typeEOS6_DpOS7_, symObjAddr: 0x3DDC, symBinAddr: 0x100021928, symSize: 0x34 }
  - { offset: 0xD3F78, size: 0x8, addend: 0x0, symName: __ZNSt14_Function_base13_Base_managerIZN4game4Game5startEvEUlvE_E14_M_get_pointerERKSt9_Any_data, symObjAddr: 0x3DB4, symBinAddr: 0x100021900, symSize: 0x28 }
  - { offset: 0xD3FCB, size: 0x8, addend: 0x0, symName: __ZNSt14_Function_base13_Base_managerIZN4game4Game5startEvEUlvE_E9_M_createIS3_EEvRSt9_Any_dataOT_St17integral_constantIbLb1EE, symObjAddr: 0x3D4C, symBinAddr: 0x100021898, symSize: 0x68 }
  - { offset: 0xD4042, size: 0x8, addend: 0x0, symName: __ZNSt23_Rb_tree_const_iteratorISt10shared_ptrIN6engine10UI_ElementEEEC1ERKSt17_Rb_tree_iteratorIS3_E, symObjAddr: 0x3D24, symBinAddr: 0x100021870, symSize: 0x28 }
  - { offset: 0xD407B, size: 0x8, addend: 0x0, symName: __ZSt7forwardIRSt17_Rb_tree_iteratorISt10shared_ptrIN6engine10UI_ElementEEEEOT_RNSt16remove_referenceIS7_E4typeE, symObjAddr: 0x3D10, symBinAddr: 0x10002185C, symSize: 0x14 }
  - { offset: 0xD40D9, size: 0x8, addend: 0x0, symName: __ZNSt17_Rb_tree_iteratorISt10shared_ptrIN6engine10UI_ElementEEEC1EPSt18_Rb_tree_node_base, symObjAddr: 0x3CEC, symBinAddr: 0x100021838, symSize: 0x24 }
  - { offset: 0xD4150, size: 0x8, addend: 0x0, symName: __ZNSt4pairISt17_Rb_tree_iteratorISt10shared_ptrIN6engine10UI_ElementEEEbEC1IS5_bEEOT_OT0_, symObjAddr: 0x3CA0, symBinAddr: 0x1000217EC, symSize: 0x4C }
  - { offset: 0xD41A1, size: 0x8, addend: 0x0, symName: __ZNSt8_Rb_treeISt10shared_ptrIN6engine10UI_ElementEES3_St9_IdentityIS3_ESt4lessIS3_ESaIS3_EE10_M_insert_IRKS3_NS9_11_Alloc_nodeEEESt17_Rb_tree_iteratorIS3_EPSt18_Rb_tree_node_baseSH_OT_RT0_, symObjAddr: 0x3BB0, symBinAddr: 0x1000216FC, symSize: 0xF0 }
  - { offset: 0xD426C, size: 0x8, addend: 0x0, symName: __ZNSt8_Rb_treeISt10shared_ptrIN6engine10UI_ElementEES3_St9_IdentityIS3_ESt4lessIS3_ESaIS3_EE11_Alloc_nodeC1ERS9_, symObjAddr: 0x3B78, symBinAddr: 0x1000216D8, symSize: 0x24 }
  - { offset: 0xD429B, size: 0x8, addend: 0x0, symName: __ZNKSt9_IdentityISt10shared_ptrIN6engine10UI_ElementEEEclERKS3_, symObjAddr: 0x3B60, symBinAddr: 0x1000216C0, symSize: 0x18 }
  - { offset: 0xD42D6, size: 0x8, addend: 0x0, symName: __ZNSt8_Rb_treeISt10shared_ptrIN6engine10UI_ElementEES3_St9_IdentityIS3_ESt4lessIS3_ESaIS3_EE24_M_get_insert_unique_posERKS3_, symObjAddr: 0x3A08, symBinAddr: 0x100021568, symSize: 0x158 }
  - { offset: 0xD4382, size: 0x8, addend: 0x0, symName: __ZNSt23_Rb_tree_const_iteratorISt10shared_ptrIN6engine6SpriteEEEC1ERKSt17_Rb_tree_iteratorIS3_E, symObjAddr: 0x39E0, symBinAddr: 0x100021540, symSize: 0x28 }
  - { offset: 0xD43B4, size: 0x8, addend: 0x0, symName: __ZSt7forwardIRbEOT_RNSt16remove_referenceIS1_E4typeE, symObjAddr: 0x39CC, symBinAddr: 0x10002152C, symSize: 0x14 }
  - { offset: 0xD43F4, size: 0x8, addend: 0x0, symName: __ZSt7forwardIRSt17_Rb_tree_iteratorISt10shared_ptrIN6engine6SpriteEEEEOT_RNSt16remove_referenceIS7_E4typeE, symObjAddr: 0x39B8, symBinAddr: 0x100021518, symSize: 0x14 }
  - { offset: 0xD4452, size: 0x8, addend: 0x0, symName: __ZNSt17_Rb_tree_iteratorISt10shared_ptrIN6engine6SpriteEEEC1EPSt18_Rb_tree_node_base, symObjAddr: 0x3994, symBinAddr: 0x1000214F4, symSize: 0x24 }
  - { offset: 0xD44C9, size: 0x8, addend: 0x0, symName: __ZNSt4pairISt17_Rb_tree_iteratorISt10shared_ptrIN6engine6SpriteEEEbEC1IS5_bEEOT_OT0_, symObjAddr: 0x3948, symBinAddr: 0x1000214A8, symSize: 0x4C }
  - { offset: 0xD451A, size: 0x8, addend: 0x0, symName: __ZNSt8_Rb_treeISt10shared_ptrIN6engine6SpriteEES3_St9_IdentityIS3_ESt4lessIS3_ESaIS3_EE10_M_insert_IRKS3_NS9_11_Alloc_nodeEEESt17_Rb_tree_iteratorIS3_EPSt18_Rb_tree_node_baseSH_OT_RT0_, symObjAddr: 0x3858, symBinAddr: 0x1000213B8, symSize: 0xF0 }
  - { offset: 0xD45E5, size: 0x8, addend: 0x0, symName: __ZNSt8_Rb_treeISt10shared_ptrIN6engine6SpriteEES3_St9_IdentityIS3_ESt4lessIS3_ESaIS3_EE11_Alloc_nodeC1ERS9_, symObjAddr: 0x3820, symBinAddr: 0x100021394, symSize: 0x24 }
  - { offset: 0xD4614, size: 0x8, addend: 0x0, symName: __ZNKSt9_IdentityISt10shared_ptrIN6engine6SpriteEEEclERKS3_, symObjAddr: 0x3808, symBinAddr: 0x10002137C, symSize: 0x18 }
  - { offset: 0xD464F, size: 0x8, addend: 0x0, symName: __ZNSt8_Rb_treeISt10shared_ptrIN6engine6SpriteEES3_St9_IdentityIS3_ESt4lessIS3_ESaIS3_EE24_M_get_insert_unique_posERKS3_, symObjAddr: 0x36B0, symBinAddr: 0x100021224, symSize: 0x158 }
  - { offset: 0xD46CF, size: 0x8, addend: 0x0, symName: __ZSt4swapIPFvRKSt9_Any_dataEENSt9enable_ifIXsrSt6__and_IJSt6__not_ISt15__is_tuple_likeIT_EESt21is_move_constructibleIS9_ESt18is_move_assignableIS9_EEE5valueEvE4typeERS9_SJ_, symObjAddr: 0x365C, symBinAddr: 0x1000211D0, symSize: 0x54 }
  - { offset: 0xD4721, size: 0x8, addend: 0x0, symName: __ZSt4swapIPFbRSt9_Any_dataRKS0_St18_Manager_operationEENSt9enable_ifIXsrSt6__and_IJSt6__not_ISt15__is_tuple_likeIT_EESt21is_move_constructibleISB_ESt18is_move_assignableISB_EEE5valueEvE4typeERSB_SL_, symObjAddr: 0x3608, symBinAddr: 0x10002117C, symSize: 0x54 }
  - { offset: 0xD4773, size: 0x8, addend: 0x0, symName: __ZSt4swapISt9_Any_dataENSt9enable_ifIXsrSt6__and_IJSt6__not_ISt15__is_tuple_likeIT_EESt21is_move_constructibleIS5_ESt18is_move_assignableIS5_EEE5valueEvE4typeERS5_SF_, symObjAddr: 0x35B4, symBinAddr: 0x100021128, symSize: 0x54 }
  - { offset: 0xD47C5, size: 0x8, addend: 0x0, symName: __ZSt18uninitialized_copyIN9__gnu_cxx17__normal_iteratorIPKSt10shared_ptrIN6engine10UI_ElementEESt6vectorIS5_SaIS5_EEEEPS5_ET0_T_SE_SD_, symObjAddr: 0x3518, symBinAddr: 0x1000210F4, symSize: 0x34 }
  - { offset: 0xD4840, size: 0x8, addend: 0x0, symName: __ZSt16__do_uninit_copyIN9__gnu_cxx17__normal_iteratorIPKSt10shared_ptrIN6engine10UI_ElementEESt6vectorIS5_SaIS5_EEEEPS5_ET0_T_SE_SD_, symObjAddr: 0x3490, symBinAddr: 0x10002106C, symSize: 0x88 }
  - { offset: 0xD48B2, size: 0x8, addend: 0x0, symName: __ZN9__gnu_cxxeqIPKSt10shared_ptrIN6engine10UI_ElementEESt6vectorIS4_SaIS4_EEEEbRKNS_17__normal_iteratorIT_T0_EESF_QrqXeqcldtfL0p_4baseEcldtfL0p0_4baseERSt14convertible_toIbEE, symObjAddr: 0x3438, symBinAddr: 0x100021028, symSize: 0x44 }
  - { offset: 0xD4903, size: 0x8, addend: 0x0, symName: __ZNSt12_Vector_baseISt10shared_ptrIN6engine10UI_ElementEESaIS3_EE17_M_create_storageEm, symObjAddr: 0x3324, symBinAddr: 0x100020FC8, symSize: 0x60 }
  - { offset: 0xD4965, size: 0x8, addend: 0x0, symName: __ZNSt12_Vector_baseISt10shared_ptrIN6engine10UI_ElementEESaIS3_EE12_Vector_implC1ERKS4_, symObjAddr: 0x32D8, symBinAddr: 0x100020F7C, symSize: 0x4C }
  - { offset: 0xD49FE, size: 0x8, addend: 0x0, symName: __ZNSt17_Function_handlerIFvvEZN4game4Game7restartEvEUlvE_E10_M_managerERSt9_Any_dataRKS5_St18_Manager_operation, symObjAddr: 0x2F5C, symBinAddr: 0x100020EF4, symSize: 0x88 }
  - { offset: 0xD4A4A, size: 0x8, addend: 0x0, symName: __ZNSt17_Function_handlerIFvvEZN4game4Game7restartEvEUlvE_E9_M_invokeERKSt9_Any_data, symObjAddr: 0x2F38, symBinAddr: 0x100020ED0, symSize: 0x24 }
  - { offset: 0xD4A74, size: 0x8, addend: 0x0, symName: __ZNSt14_Function_base13_Base_managerIZN4game4Game7restartEvEUlvE_E15_M_init_functorIS3_EEvRSt9_Any_dataOT_, symObjAddr: 0x2EFC, symBinAddr: 0x100020E94, symSize: 0x3C }
  - { offset: 0xD4ABD, size: 0x8, addend: 0x0, symName: __ZSt7forwardIZN4game4Game7restartEvEUlvE_EOT_RNSt16remove_referenceIS3_E4typeE, symObjAddr: 0x2EE8, symBinAddr: 0x100020E80, symSize: 0x14 }
  - { offset: 0xD4AEF, size: 0x8, addend: 0x0, symName: __ZNSt14_Function_base13_Base_managerIZN4game4Game7restartEvEUlvE_E21_M_not_empty_functionIS3_EEbRKT_, symObjAddr: 0x2ED4, symBinAddr: 0x100020E6C, symSize: 0x14 }
  - { offset: 0xD4B1A, size: 0x8, addend: 0x0, symName: __ZNSt17_Function_handlerIFvvEZN4game4Game5startEvEUlvE_E10_M_managerERSt9_Any_dataRKS5_St18_Manager_operation, symObjAddr: 0x2D64, symBinAddr: 0x100020DE4, symSize: 0x88 }
  - { offset: 0xD4B66, size: 0x8, addend: 0x0, symName: __ZNSt17_Function_handlerIFvvEZN4game4Game5startEvEUlvE_E9_M_invokeERKSt9_Any_data, symObjAddr: 0x2D40, symBinAddr: 0x100020DC0, symSize: 0x24 }
  - { offset: 0xD4B90, size: 0x8, addend: 0x0, symName: __ZNSt14_Function_base13_Base_managerIZN4game4Game5startEvEUlvE_E15_M_init_functorIS3_EEvRSt9_Any_dataOT_, symObjAddr: 0x2D04, symBinAddr: 0x100020D84, symSize: 0x3C }
  - { offset: 0xD4BD9, size: 0x8, addend: 0x0, symName: __ZSt7forwardIZN4game4Game5startEvEUlvE_EOT_RNSt16remove_referenceIS3_E4typeE, symObjAddr: 0x2CF0, symBinAddr: 0x100020D70, symSize: 0x14 }
  - { offset: 0xD4C0B, size: 0x8, addend: 0x0, symName: __ZNSt14_Function_base13_Base_managerIZN4game4Game5startEvEUlvE_E21_M_not_empty_functionIS3_EEbRKT_, symObjAddr: 0x2CDC, symBinAddr: 0x100020D5C, symSize: 0x14 }
  - { offset: 0xD4C82, size: 0x8, addend: 0x0, symName: __ZNSt4pairISt23_Rb_tree_const_iteratorISt10shared_ptrIN6engine10UI_ElementEEEbEC1IRSt17_Rb_tree_iteratorIS4_ERbEEOT_OT0_, symObjAddr: 0x2C88, symBinAddr: 0x100020D08, symSize: 0x54 }
  - { offset: 0xD4CCC, size: 0x8, addend: 0x0, symName: __ZNSt8_Rb_treeISt10shared_ptrIN6engine10UI_ElementEES3_St9_IdentityIS3_ESt4lessIS3_ESaIS3_EE16_M_insert_uniqueIRKS3_EESt4pairISt17_Rb_tree_iteratorIS3_EbEOT_, symObjAddr: 0x2BBC, symBinAddr: 0x100020C3C, symSize: 0xCC }
  - { offset: 0xD4D91, size: 0x8, addend: 0x0, symName: __ZNSt4pairISt23_Rb_tree_const_iteratorISt10shared_ptrIN6engine6SpriteEEEbEC1IRSt17_Rb_tree_iteratorIS4_ERbEEOT_OT0_, symObjAddr: 0x2B68, symBinAddr: 0x100020BE8, symSize: 0x54 }
  - { offset: 0xD4DDB, size: 0x8, addend: 0x0, symName: __ZNSt8_Rb_treeISt10shared_ptrIN6engine6SpriteEES3_St9_IdentityIS3_ESt4lessIS3_ESaIS3_EE16_M_insert_uniqueIRKS3_EESt4pairISt17_Rb_tree_iteratorIS3_EbEOT_, symObjAddr: 0x2A9C, symBinAddr: 0x100020B1C, symSize: 0xCC }
  - { offset: 0xD4E58, size: 0x8, addend: 0x0, symName: __ZNSt8functionIFvvEE4swapERS1_, symObjAddr: 0x2A3C, symBinAddr: 0x100020ABC, symSize: 0x60 }
  - { offset: 0xD4EBB, size: 0x8, addend: 0x0, symName: __ZNSt8functionIFvvEEC1ERKS1_, symObjAddr: 0x2998, symBinAddr: 0x100020A18, symSize: 0xA4 }
  - { offset: 0xD4EE6, size: 0x8, addend: 0x0, symName: __ZSt22__uninitialized_copy_aIN9__gnu_cxx17__normal_iteratorIPKSt10shared_ptrIN6engine10UI_ElementEESt6vectorIS5_SaIS5_EEEEPS5_S5_ET0_T_SE_SD_RSaIT1_E, symObjAddr: 0x2940, symBinAddr: 0x1000209C0, symSize: 0x58 }
  - { offset: 0xD4F5A, size: 0x8, addend: 0x0, symName: __ZNKSt6vectorISt10shared_ptrIN6engine10UI_ElementEESaIS3_EE3endEv, symObjAddr: 0x2904, symBinAddr: 0x100020998, symSize: 0x28 }
  - { offset: 0xD4F84, size: 0x8, addend: 0x0, symName: __ZNKSt6vectorISt10shared_ptrIN6engine10UI_ElementEESaIS3_EE5beginEv, symObjAddr: 0x28E0, symBinAddr: 0x100020974, symSize: 0x24 }
  - { offset: 0xD4FE4, size: 0x8, addend: 0x0, symName: __ZNSt12_Vector_baseISt10shared_ptrIN6engine10UI_ElementEESaIS3_EEC2EmRKS4_, symObjAddr: 0x283C, symBinAddr: 0x100020920, symSize: 0x54 }
  - { offset: 0xD5054, size: 0x8, addend: 0x0, symName: __ZSt7forwardIbEOT_RNSt16remove_referenceIS0_E4typeE, symObjAddr: 0x2664, symBinAddr: 0x10002090C, symSize: 0x14 }
  - { offset: 0xD50BF, size: 0x8, addend: 0x0, symName: __ZNSt8functionIFvvEEC1IZN4game4Game7restartEvEUlvE_vEEOT_, symObjAddr: 0x2370, symBinAddr: 0x100020880, symSize: 0x8C }
  - { offset: 0xD514E, size: 0x8, addend: 0x0, symName: __ZNSt8functionIFvvEEC1IZN4game4Game5startEvEUlvE_vEEOT_, symObjAddr: 0x2134, symBinAddr: 0x1000207F4, symSize: 0x8C }
  - { offset: 0xD51A8, size: 0x8, addend: 0x0, symName: __ZNSt3setISt10shared_ptrIN6engine10UI_ElementEESt4lessIS3_ESaIS3_EE6insertERKS3_, symObjAddr: 0x1EA0, symBinAddr: 0x1000207B4, symSize: 0x40 }
  - { offset: 0xD51F4, size: 0x8, addend: 0x0, symName: __ZNSt3setISt10shared_ptrIN6engine6SpriteEESt4lessIS3_ESaIS3_EE6insertERKS3_, symObjAddr: 0x1E60, symBinAddr: 0x100020774, symSize: 0x40 }
  - { offset: 0xD5240, size: 0x8, addend: 0x0, symName: __ZNSt8functionIFvvEEaSERKS1_, symObjAddr: 0x1E24, symBinAddr: 0x100020738, symSize: 0x3C }
  - { offset: 0xD52A3, size: 0x8, addend: 0x0, symName: __ZNSt6vectorISt10shared_ptrIN6engine10UI_ElementEESaIS3_EEC1ERKS5_, symObjAddr: 0x1CD4, symBinAddr: 0x100020644, symSize: 0xF4 }
  - { offset: 0xD5394, size: 0x8, addend: 0x0, symName: __ZN4game4Game7restartEv, symObjAddr: 0x182C, symBinAddr: 0x100020448, symSize: 0x1FC }
  - { offset: 0xD53ED, size: 0x8, addend: 0x0, symName: __ZZN4game4Game7restartEvENKUlvE_clEv, symObjAddr: 0x172C, symBinAddr: 0x100020348, symSize: 0x100 }
  - { offset: 0xD54A4, size: 0x8, addend: 0x0, symName: __ZN4game4Game5startEv, symObjAddr: 0x13DC, symBinAddr: 0x1000201CC, symSize: 0x17C }
  - { offset: 0xD54EC, size: 0x8, addend: 0x0, symName: __ZZN4game4Game5startEvENKUlvE_clEv, symObjAddr: 0x13C0, symBinAddr: 0x1000201B0, symSize: 0x1C }
  - { offset: 0xD55CC, size: 0x8, addend: 0x0, symName: __ZNSt10shared_ptrIN4game6PlayerEED1Ev, symObjAddr: 0x13A0, symBinAddr: 0x100020190, symSize: 0x20 }
  - { offset: 0xD5616, size: 0x8, addend: 0x0, symName: __ZNSt12__shared_ptrIN4game6PlayerELN9__gnu_cxx12_Lock_policyE2EED2Ev, symObjAddr: 0x137C, symBinAddr: 0x10002016C, symSize: 0x24 }
  - { offset: 0xD5638, size: 0x8, addend: 0x0, symName: __ZN4game12Food_Spawner5startEv, symObjAddr: 0x1364, symBinAddr: 0x100020154, symSize: 0x18 }
  - { offset: 0xD5654, size: 0x8, addend: 0x0, symName: __ZN6engine6Engine17delete_ui_elementESt10shared_ptrINS_10UI_ElementEE, symObjAddr: 0x560, symBinAddr: 0x100020128, symSize: 0x2C }
  - { offset: 0xD568F, size: 0x8, addend: 0x0, symName: __ZN6engine6Engine13delete_spriteESt10shared_ptrINS_6SpriteEE, symObjAddr: 0x534, symBinAddr: 0x1000200FC, symSize: 0x2C }
  - { offset: 0xD56CA, size: 0x8, addend: 0x0, symName: __ZN6engine6Engine16set_custom_logicESt8functionIFvvEE, symObjAddr: 0x508, symBinAddr: 0x1000200D0, symSize: 0x2C }
  - { offset: 0xD5705, size: 0x8, addend: 0x0, symName: __ZN6engine6Engine15get_ui_elementsEv, symObjAddr: 0x4D0, symBinAddr: 0x100020098, symSize: 0x38 }
  - { offset: 0xD572F, size: 0x8, addend: 0x0, symName: __ZN6engine6Engine11get_spritesEv, symObjAddr: 0x498, symBinAddr: 0x100020060, symSize: 0x38 }
  - { offset: 0xD57A9, size: 0x8, addend: 0x0, symName: __ZL18__gthread_active_pv, symObjAddr: 0x15C, symBinAddr: 0x100020058, symSize: 0x8 }
  - { offset: 0xD57DC, size: 0x8, addend: 0x0, symName: _main, symObjAddr: 0x0, symBinAddr: 0x1000232D8, symSize: 0x18 }
  - { offset: 0xD5834, size: 0x8, addend: 0x0, symName: _main, symObjAddr: 0x0, symBinAddr: 0x1000232D8, symSize: 0x18 }
  - { offset: 0xEDE22, size: 0x8, addend: 0x0, symName: __ZN9constantsL8gResPathE, symObjAddr: 0x1D958, symBinAddr: 0x1000540E0, symSize: 0x0 }
  - { offset: 0xEDE32, size: 0x8, addend: 0x0, symName: __ZN9constantsL6bg_strE, symObjAddr: 0x15C158, symBinAddr: 0x100055058, symSize: 0x0 }
  - { offset: 0xEDE42, size: 0x8, addend: 0x0, symName: __ZN9constantsL8ship_strE, symObjAddr: 0x15C178, symBinAddr: 0x100055078, symSize: 0x0 }
  - { offset: 0xEDE52, size: 0x8, addend: 0x0, symName: __ZN9constantsL6sign_0E, symObjAddr: 0x15C198, symBinAddr: 0x100055098, symSize: 0x0 }
  - { offset: 0xEDE62, size: 0x8, addend: 0x0, symName: __ZN9constantsL6sign_1E, symObjAddr: 0x15C1B8, symBinAddr: 0x1000550B8, symSize: 0x0 }
  - { offset: 0xEDE72, size: 0x8, addend: 0x0, symName: __ZN9constantsL6sign_2E, symObjAddr: 0x15C1D8, symBinAddr: 0x1000550D8, symSize: 0x0 }
  - { offset: 0xEDE82, size: 0x8, addend: 0x0, symName: __ZN9constantsL6sign_3E, symObjAddr: 0x15C1F8, symBinAddr: 0x1000550F8, symSize: 0x0 }
  - { offset: 0xEDE92, size: 0x8, addend: 0x0, symName: __ZN9constantsL6sign_4E, symObjAddr: 0x15C218, symBinAddr: 0x100055118, symSize: 0x0 }
  - { offset: 0xEDEA2, size: 0x8, addend: 0x0, symName: __ZN9constantsL6sign_5E, symObjAddr: 0x15C238, symBinAddr: 0x100055138, symSize: 0x0 }
  - { offset: 0xEDEB2, size: 0x8, addend: 0x0, symName: __ZN9constantsL6sign_6E, symObjAddr: 0x15C258, symBinAddr: 0x100055158, symSize: 0x0 }
  - { offset: 0xEDEC2, size: 0x8, addend: 0x0, symName: __ZN9constantsL6sign_7E, symObjAddr: 0x15C278, symBinAddr: 0x100055178, symSize: 0x0 }
  - { offset: 0xEDED2, size: 0x8, addend: 0x0, symName: __ZN9constantsL6sign_8E, symObjAddr: 0x15C298, symBinAddr: 0x100055198, symSize: 0x0 }
  - { offset: 0xEDEE2, size: 0x8, addend: 0x0, symName: __ZN9constantsL6sign_9E, symObjAddr: 0x15C2B8, symBinAddr: 0x1000551B8, symSize: 0x0 }
  - { offset: 0xEDEF2, size: 0x8, addend: 0x0, symName: __ZN9constantsL10sample_strE, symObjAddr: 0x15C2D8, symBinAddr: 0x1000551D8, symSize: 0x0 }
  - { offset: 0xEDF02, size: 0x8, addend: 0x0, symName: __ZN9constantsL13standard_fontE, symObjAddr: 0x15C2F8, symBinAddr: 0x1000551F8, symSize: 0x0 }
  - { offset: 0xEF1CF, size: 0x8, addend: 0x0, symName: __ZN11constants_wL8gResPathE, symObjAddr: 0x1D978, symBinAddr: 0x100054100, symSize: 0x0 }
  - { offset: 0xEF1DF, size: 0x8, addend: 0x0, symName: __ZN11constants_wL6bg_strE, symObjAddr: 0x15C318, symBinAddr: 0x100055218, symSize: 0x0 }
  - { offset: 0xEF1EF, size: 0x8, addend: 0x0, symName: __ZN11constants_wL8ship_strE, symObjAddr: 0x15C338, symBinAddr: 0x100055238, symSize: 0x0 }
  - { offset: 0xEF1FF, size: 0x8, addend: 0x0, symName: __ZN11constants_wL6sign_0E, symObjAddr: 0x15C358, symBinAddr: 0x100055258, symSize: 0x0 }
  - { offset: 0xEF20F, size: 0x8, addend: 0x0, symName: __ZN11constants_wL6sign_1E, symObjAddr: 0x15C378, symBinAddr: 0x100055278, symSize: 0x0 }
  - { offset: 0xEF21F, size: 0x8, addend: 0x0, symName: __ZN11constants_wL6sign_2E, symObjAddr: 0x15C398, symBinAddr: 0x100055298, symSize: 0x0 }
  - { offset: 0xEF22F, size: 0x8, addend: 0x0, symName: __ZN11constants_wL6sign_3E, symObjAddr: 0x15C3B8, symBinAddr: 0x1000552B8, symSize: 0x0 }
  - { offset: 0xEF23F, size: 0x8, addend: 0x0, symName: __ZN11constants_wL6sign_4E, symObjAddr: 0x15C3D8, symBinAddr: 0x1000552D8, symSize: 0x0 }
  - { offset: 0xEF24F, size: 0x8, addend: 0x0, symName: __ZN11constants_wL6sign_5E, symObjAddr: 0x15C3F8, symBinAddr: 0x1000552F8, symSize: 0x0 }
  - { offset: 0xEF25F, size: 0x8, addend: 0x0, symName: __ZN11constants_wL6sign_6E, symObjAddr: 0x15C418, symBinAddr: 0x100055318, symSize: 0x0 }
  - { offset: 0xEF26F, size: 0x8, addend: 0x0, symName: __ZN11constants_wL6sign_7E, symObjAddr: 0x15C438, symBinAddr: 0x100055338, symSize: 0x0 }
  - { offset: 0xEF27F, size: 0x8, addend: 0x0, symName: __ZN11constants_wL6sign_8E, symObjAddr: 0x15C458, symBinAddr: 0x100055358, symSize: 0x0 }
  - { offset: 0xEF28F, size: 0x8, addend: 0x0, symName: __ZN11constants_wL6sign_9E, symObjAddr: 0x15C478, symBinAddr: 0x100055378, symSize: 0x0 }
  - { offset: 0xEF29F, size: 0x8, addend: 0x0, symName: __ZN11constants_wL10sample_strE, symObjAddr: 0x15C498, symBinAddr: 0x100055398, symSize: 0x0 }
  - { offset: 0xEF2AF, size: 0x8, addend: 0x0, symName: __ZN11constants_wL10player_strE, symObjAddr: 0x15C4B8, symBinAddr: 0x1000553B8, symSize: 0x0 }
  - { offset: 0xEF2BF, size: 0x8, addend: 0x0, symName: __ZN11constants_wL7orb_pngE, symObjAddr: 0x15C4D8, symBinAddr: 0x1000553D8, symSize: 0x0 }
  - { offset: 0xEF2CF, size: 0x8, addend: 0x0, symName: __ZN11constants_wL7head_upE, symObjAddr: 0x15C4F8, symBinAddr: 0x1000553F8, symSize: 0x0 }
  - { offset: 0xEF2DF, size: 0x8, addend: 0x0, symName: __ZN11constants_wL9head_downE, symObjAddr: 0x15C518, symBinAddr: 0x100055418, symSize: 0x0 }
  - { offset: 0xEF2EF, size: 0x8, addend: 0x0, symName: __ZN11constants_wL9head_leftE, symObjAddr: 0x15C538, symBinAddr: 0x100055438, symSize: 0x0 }
  - { offset: 0xEF2FF, size: 0x8, addend: 0x0, symName: __ZN11constants_wL10head_rightE, symObjAddr: 0x15C558, symBinAddr: 0x100055458, symSize: 0x0 }
  - { offset: 0xEF30F, size: 0x8, addend: 0x0, symName: __ZN11constants_wL8tail_verE, symObjAddr: 0x15C578, symBinAddr: 0x100055478, symSize: 0x0 }
  - { offset: 0xEF31F, size: 0x8, addend: 0x0, symName: __ZN11constants_wL8tail_horE, symObjAddr: 0x15C598, symBinAddr: 0x100055498, symSize: 0x0 }
  - { offset: 0xEF5D7, size: 0x8, addend: 0x0, symName: __ZStL8__ioinit, symObjAddr: 0x15C5B8, symBinAddr: 0x1000554B8, symSize: 0x0 }
  - { offset: 0xEFDED, size: 0x8, addend: 0x0, symName: __GLOBAL__sub_I_player.cpp, symObjAddr: 0x1E5E8, symBinAddr: 0x100028388, symSize: 0x14 }
  - { offset: 0xF0405, size: 0x8, addend: 0x0, symName: __ZSt10destroy_atIN4game8LocationEEvPT_, symObjAddr: 0x14ED4, symBinAddr: 0x100027ABC, symSize: 0x14 }
  - { offset: 0xF0DC0, size: 0x8, addend: 0x0, symName: __ZSt8_DestroyIN4game8LocationEEvPT_, symObjAddr: 0x110AC, symBinAddr: 0x100027A9C, symSize: 0x20 }
  - { offset: 0xF0DF2, size: 0x8, addend: 0x0, symName: __ZNSt14_Sp_ebo_helperILi0ESaIvELb1EE6_S_getERS1_, symObjAddr: 0x11098, symBinAddr: 0x100027A88, symSize: 0x14 }
  - { offset: 0xF1070, size: 0x8, addend: 0x0, symName: __ZNSt23_Sp_counted_ptr_inplaceIN4game8LocationESaIvELN9__gnu_cxx12_Lock_policyE2EE5_Impl8_M_allocEv, symObjAddr: 0x10854, symBinAddr: 0x100027A6C, symSize: 0x1C }
  - { offset: 0xF1889, size: 0x8, addend: 0x0, symName: __ZNSt23_Sp_counted_ptr_inplaceIN4game8LocationESaIvELN9__gnu_cxx12_Lock_policyE2EE14_M_get_deleterERKSt9type_info, symObjAddr: 0xF6B4, symBinAddr: 0x1000279F4, symSize: 0x78 }
  - { offset: 0xF18D5, size: 0x8, addend: 0x0, symName: __ZNSt23_Sp_counted_ptr_inplaceIN4game8LocationESaIvELN9__gnu_cxx12_Lock_policyE2EE10_M_destroyEv, symObjAddr: 0xF658, symBinAddr: 0x100027998, symSize: 0x5C }
  - { offset: 0xF198F, size: 0x8, addend: 0x0, symName: __ZNSt23_Sp_counted_ptr_inplaceIN4game8LocationESaIvELN9__gnu_cxx12_Lock_policyE2EE10_M_disposeEv, symObjAddr: 0xF60C, symBinAddr: 0x10002794C, symSize: 0x4C }
  - { offset: 0xF1A0A, size: 0x8, addend: 0x0, symName: __ZNSt23_Sp_counted_ptr_inplaceIN4game8LocationESaIvELN9__gnu_cxx12_Lock_policyE2EED0Ev, symObjAddr: 0xF5E4, symBinAddr: 0x100027924, symSize: 0x28 }
  - { offset: 0xF1A34, size: 0x8, addend: 0x0, symName: __ZNSt23_Sp_counted_ptr_inplaceIN4game8LocationESaIvELN9__gnu_cxx12_Lock_policyE2EED1Ev, symObjAddr: 0xF5B0, symBinAddr: 0x1000278F0, symSize: 0x34 }
  - { offset: 0xF1A5A, size: 0x8, addend: 0x0, symName: __ZNSt15_Sp_counted_ptrIPN4game6PlayerELN9__gnu_cxx12_Lock_policyE2EE14_M_get_deleterERKSt9type_info, symObjAddr: 0xF598, symBinAddr: 0x1000278D8, symSize: 0x18 }
  - { offset: 0xF1A8D, size: 0x8, addend: 0x0, symName: __ZNSt15_Sp_counted_ptrIPN4game6PlayerELN9__gnu_cxx12_Lock_policyE2EE10_M_destroyEv, symObjAddr: 0xF570, symBinAddr: 0x1000278B0, symSize: 0x28 }
  - { offset: 0xF1AB7, size: 0x8, addend: 0x0, symName: __ZNSt15_Sp_counted_ptrIPN4game6PlayerELN9__gnu_cxx12_Lock_policyE2EE10_M_disposeEv, symObjAddr: 0xF538, symBinAddr: 0x100027878, symSize: 0x38 }
  - { offset: 0xF1ADD, size: 0x8, addend: 0x0, symName: __Z41__static_initialization_and_destruction_0v, symObjAddr: 0x1DD30, symBinAddr: 0x100027AD0, symSize: 0x8B8 }
  - { offset: 0xF1B85, size: 0x8, addend: 0x0, symName: __ZNSt15_Sp_counted_ptrIPN4game6PlayerELN9__gnu_cxx12_Lock_policyE2EED0Ev, symObjAddr: 0xF510, symBinAddr: 0x100027850, symSize: 0x28 }
  - { offset: 0xF1BAF, size: 0x8, addend: 0x0, symName: __ZNSt15_Sp_counted_ptrIPN4game6PlayerELN9__gnu_cxx12_Lock_policyE2EED1Ev, symObjAddr: 0xF4DC, symBinAddr: 0x10002781C, symSize: 0x34 }
  - { offset: 0xF1BD1, size: 0x8, addend: 0x0, symName: __ZNSt11__copy_moveILb0ELb0ESt26random_access_iterator_tagE12__assign_oneIPSt10shared_ptrIN4game8LocationEES7_EEvPT_PT0_, symObjAddr: 0xF4B4, symBinAddr: 0x1000277F4, symSize: 0x28 }
  - { offset: 0xF1C4A, size: 0x8, addend: 0x0, symName: __ZNSt10shared_ptrIN4game4TailEEC1EOS2_, symObjAddr: 0xF478, symBinAddr: 0x1000277B8, symSize: 0x3C }
  - { offset: 0xF1C8B, size: 0x8, addend: 0x0, symName: __ZNSt20__copy_move_backwardILb0ELb1ESt26random_access_iterator_tagE13__copy_move_bIPSt10shared_ptrIN4game8LocationEES7_EEPT0_PT_SB_S9_, symObjAddr: 0xF3CC, symBinAddr: 0x10002770C, symSize: 0xAC }
  - { offset: 0xF1CFA, size: 0x8, addend: 0x0, symName: __ZNSt20__copy_move_backwardILb0ELb0ESt26random_access_iterator_tagE13__copy_move_bIPPSt10shared_ptrIN4game8LocationEES8_EET0_T_SA_S9_, symObjAddr: 0xF358, symBinAddr: 0x100027698, symSize: 0x74 }
  - { offset: 0xF1D69, size: 0x8, addend: 0x0, symName: __ZNSt11__copy_moveILb0ELb1ESt26random_access_iterator_tagE8__copy_mIPSt10shared_ptrIN4game8LocationEES7_EEPT0_PT_SB_S9_, symObjAddr: 0xF2C8, symBinAddr: 0x100027608, symSize: 0x90 }
  - { offset: 0xF1DD8, size: 0x8, addend: 0x0, symName: __ZNSt11__copy_moveILb0ELb0ESt26random_access_iterator_tagE8__copy_mIPPSt10shared_ptrIN4game8LocationEES8_EET0_T_SA_S9_, symObjAddr: 0xF254, symBinAddr: 0x100027594, symSize: 0x74 }
  - { offset: 0xF1E7D, size: 0x8, addend: 0x0, symName: __ZSt12construct_atISt10shared_ptrIN4game4TailEEJS3_EEDTgsnwcvPvLi0E_T_pispcl7declvalIT0_EEEEPS5_DpOS6_, symObjAddr: 0xF148, symBinAddr: 0x10002752C, symSize: 0x68 }
  - { offset: 0xF1ED2, size: 0x8, addend: 0x0, symName: __ZSt7forwardISt10shared_ptrIN4game4TailEEEOT_RNSt16remove_referenceIS4_E4typeE, symObjAddr: 0xF134, symBinAddr: 0x100027518, symSize: 0x14 }
  - { offset: 0xF1F08, size: 0x8, addend: 0x0, symName: __ZNSt15__new_allocatorIPSt10shared_ptrIN4game8LocationEEE8allocateEmPKv, symObjAddr: 0xF0B8, symBinAddr: 0x10002749C, symSize: 0x7C }
  - { offset: 0xF1F7A, size: 0x8, addend: 0x0, symName: __ZSt23__copy_move_backward_a2ILb0EPPSt10shared_ptrIN4game8LocationEES5_ET1_T0_S7_S6_, symObjAddr: 0xF064, symBinAddr: 0x100027448, symSize: 0x54 }
  - { offset: 0xF1FE2, size: 0x8, addend: 0x0, symName: __ZSt14__copy_move_a2ILb0EPPSt10shared_ptrIN4game8LocationEES5_ET1_T0_S7_S6_, symObjAddr: 0xF010, symBinAddr: 0x1000273F4, symSize: 0x54 }
  - { offset: 0xF2051, size: 0x8, addend: 0x0, symName: __ZSt12construct_atIN4game8LocationEJRfS2_RNS0_9DirectionEEEDTgsnwcvPvLi0E_T_pispcl7declvalIT0_EEEEPS6_DpOS7_, symObjAddr: 0xEF74, symBinAddr: 0x100027358, symSize: 0x9C }
  - { offset: 0xF20C1, size: 0x8, addend: 0x0, symName: __ZNSt15__new_allocatorISt23_Sp_counted_ptr_inplaceIN4game8LocationESaIvELN9__gnu_cxx12_Lock_policyE2EEE10deallocateEPS6_m, symObjAddr: 0xEF44, symBinAddr: 0x100027328, symSize: 0x30 }
  - { offset: 0xF210B, size: 0x8, addend: 0x0, symName: __ZNSt15__new_allocatorISt23_Sp_counted_ptr_inplaceIN4game8LocationESaIvELN9__gnu_cxx12_Lock_policyE2EEE8allocateEmPKv, symObjAddr: 0xEEC8, symBinAddr: 0x1000272AC, symSize: 0x7C }
  - { offset: 0xF223F, size: 0x8, addend: 0x0, symName: __ZSt23__copy_move_backward_a1ILb0EPPSt10shared_ptrIN4game8LocationEES5_ET1_T0_S7_S6_, symObjAddr: 0xEE80, symBinAddr: 0x100027280, symSize: 0x2C }
  - { offset: 0xF22A7, size: 0x8, addend: 0x0, symName: __ZSt12__niter_wrapIPPSt10shared_ptrIN4game8LocationEEET_RKS6_S6_, symObjAddr: 0xEE68, symBinAddr: 0x100027268, symSize: 0x18 }
  - { offset: 0xF22E3, size: 0x8, addend: 0x0, symName: __ZSt14__copy_move_a1ILb0EPPSt10shared_ptrIN4game8LocationEES5_ET1_T0_S7_S6_, symObjAddr: 0xEE3C, symBinAddr: 0x10002723C, symSize: 0x2C }
  - { offset: 0xF234B, size: 0x8, addend: 0x0, symName: __ZSt12__niter_baseIPPSt10shared_ptrIN4game8LocationEEET_S6_, symObjAddr: 0xEE28, symBinAddr: 0x100027228, symSize: 0x14 }
  - { offset: 0xF2382, size: 0x8, addend: 0x0, symName: __ZN9__gnu_cxx16__aligned_bufferIN4game8LocationEE7_M_addrEv, symObjAddr: 0xEE14, symBinAddr: 0x100027214, symSize: 0x14 }
  - { offset: 0xF23A8, size: 0x8, addend: 0x0, symName: __ZSt10_ConstructIN4game8LocationEJRfS2_RNS0_9DirectionEEEvPT_DpOT0_, symObjAddr: 0xED34, symBinAddr: 0x100027134, symSize: 0xE0 }
  - { offset: 0xF2459, size: 0x8, addend: 0x0, symName: __ZNSt14_Sp_ebo_helperILi0ESaIvELb1EEC2ERKS0_, symObjAddr: 0xED1C, symBinAddr: 0x10002711C, symSize: 0x18 }
  - { offset: 0xF24B4, size: 0x8, addend: 0x0, symName: __ZSt11__addressofISaISt23_Sp_counted_ptr_inplaceIN4game8LocationESaIvELN9__gnu_cxx12_Lock_policyE2EEEEPT_RS8_, symObjAddr: 0xED08, symBinAddr: 0x100027108, symSize: 0x14 }
  - { offset: 0xF2509, size: 0x8, addend: 0x0, symName: __ZSt19__relocate_object_aISt10shared_ptrIN4game4TailEES3_SaIS3_EEvPT_PT0_RT1_, symObjAddr: 0xEBCC, symBinAddr: 0x100027090, symSize: 0x78 }
  - { offset: 0xF25D8, size: 0x8, addend: 0x0, symName: __ZNSt15__new_allocatorISt10shared_ptrIN4game4TailEEE8allocateEmPKv, symObjAddr: 0xEB50, symBinAddr: 0x100027014, symSize: 0x7C }
  - { offset: 0xF26AA, size: 0x8, addend: 0x0, symName: __ZNSt15__new_allocatorISt10shared_ptrIN4game8LocationEEE8allocateEmPKv, symObjAddr: 0xEAD4, symBinAddr: 0x100026F98, symSize: 0x7C }
  - { offset: 0xF2740, size: 0x8, addend: 0x0, symName: __ZSt22__copy_move_backward_aILb0EPPSt10shared_ptrIN4game8LocationEES5_ET1_T0_S7_S6_, symObjAddr: 0xEA74, symBinAddr: 0x100026F38, symSize: 0x60 }
  - { offset: 0xF27A8, size: 0x8, addend: 0x0, symName: __ZSt13__copy_move_aILb0EPPSt10shared_ptrIN4game8LocationEES5_ET1_T0_S7_S6_, symObjAddr: 0xEA14, symBinAddr: 0x100026ED8, symSize: 0x60 }
  - { offset: 0xF2810, size: 0x8, addend: 0x0, symName: __ZSt12__miter_baseIPPSt10shared_ptrIN4game8LocationEEET_S6_, symObjAddr: 0xEA00, symBinAddr: 0x100026EC4, symSize: 0x14 }
  - { offset: 0xF2847, size: 0x8, addend: 0x0, symName: __ZN9__gnu_cxx16__aligned_bufferIN4game8LocationEE6_M_ptrEv, symObjAddr: 0xE9E4, symBinAddr: 0x100026EA8, symSize: 0x1C }
  - { offset: 0xF28EC, size: 0x8, addend: 0x0, symName: __ZNSt23_Sp_counted_ptr_inplaceIN4game8LocationESaIvELN9__gnu_cxx12_Lock_policyE2EE5_ImplC1ES2_, symObjAddr: 0xE9B8, symBinAddr: 0x100026E7C, symSize: 0x2C }
  - { offset: 0xF2917, size: 0x8, addend: 0x0, symName: __ZSt12__to_addressISt23_Sp_counted_ptr_inplaceIN4game8LocationESaIvELN9__gnu_cxx12_Lock_policyE2EEEPT_S8_, symObjAddr: 0xE964, symBinAddr: 0x100026E68, symSize: 0x14 }
  - { offset: 0xF29B3, size: 0x8, addend: 0x0, symName: __ZNSt15__allocated_ptrISaISt23_Sp_counted_ptr_inplaceIN4game8LocationESaIvELN9__gnu_cxx12_Lock_policyE2EEEEC1ERS7_PS6_, symObjAddr: 0xE924, symBinAddr: 0x100026E28, symSize: 0x40 }
  - { offset: 0xF2A25, size: 0x8, addend: 0x0, symName: __ZNSt15__new_allocatorIPSt10shared_ptrIN4game8LocationEEE10deallocateEPS4_m, symObjAddr: 0xE8F4, symBinAddr: 0x100026DF8, symSize: 0x30 }
  - { offset: 0xF2A81, size: 0x8, addend: 0x0, symName: __ZSt10destroy_atISt10shared_ptrIN4game4TailEEEvPT_, symObjAddr: 0xE6D4, symBinAddr: 0x100026DD8, symSize: 0x20 }
  - { offset: 0xF2AB3, size: 0x8, addend: 0x0, symName: __ZSt14__relocate_a_1IPSt10shared_ptrIN4game4TailEES4_SaIS3_EET0_T_S7_S6_RT1_, symObjAddr: 0xE5FC, symBinAddr: 0x100026D54, symSize: 0x84 }
  - { offset: 0xF2B3C, size: 0x8, addend: 0x0, symName: __ZSt12__niter_baseIPSt10shared_ptrIN4game4TailEEET_S5_, symObjAddr: 0xE5E8, symBinAddr: 0x100026D40, symSize: 0x14 }
  - { offset: 0xF2B99, size: 0x8, addend: 0x0, symName: __ZSt4moveIRPN4game4TailEEONSt16remove_referenceIT_E4typeEOS5_, symObjAddr: 0xE5D4, symBinAddr: 0x100026D2C, symSize: 0x14 }
  - { offset: 0xF2BCF, size: 0x8, addend: 0x0, symName: __ZNSt16basic_format_argISt20basic_format_contextINSt8__format10_Sink_iterIcEEcEE6_M_setIyEEvT_, symObjAddr: 0xE588, symBinAddr: 0x100026CE0, symSize: 0x4C }
  - { offset: 0xF2C8C, size: 0x8, addend: 0x0, symName: __ZNSt15_Sp_counted_ptrIPN4game6PlayerELN9__gnu_cxx12_Lock_policyE2EEC1ES2_, symObjAddr: 0xE530, symBinAddr: 0x100026C9C, symSize: 0x44 }
  - { offset: 0xF2CBB, size: 0x8, addend: 0x0, symName: __ZNSt15__new_allocatorISt10shared_ptrIN4game4TailEEE10deallocateEPS3_m, symObjAddr: 0xE500, symBinAddr: 0x100026C6C, symSize: 0x30 }
  - { offset: 0xF2D28, size: 0x8, addend: 0x0, symName: __ZNSt11_Deque_baseISt10shared_ptrIN4game8LocationEESaIS3_EE15_M_allocate_mapEm, symObjAddr: 0xE434, symBinAddr: 0x100026BA0, symSize: 0xCC }
  - { offset: 0xF2E22, size: 0x8, addend: 0x0, symName: __ZSt13copy_backwardIPPSt10shared_ptrIN4game8LocationEES5_ET0_T_S7_S6_, symObjAddr: 0xE3EC, symBinAddr: 0x100026B58, symSize: 0x48 }
  - { offset: 0xF2E80, size: 0x8, addend: 0x0, symName: __ZSt4copyIPPSt10shared_ptrIN4game8LocationEES5_ET0_T_S7_S6_, symObjAddr: 0xE3A4, symBinAddr: 0x100026B10, symSize: 0x48 }
  - { offset: 0xF2EE2, size: 0x8, addend: 0x0, symName: __ZNSt23_Sp_counted_ptr_inplaceIN4game8LocationESaIvELN9__gnu_cxx12_Lock_policyE2EE6_M_ptrEv, symObjAddr: 0xE384, symBinAddr: 0x100026AF0, symSize: 0x20 }
  - { offset: 0xF2F0C, size: 0x8, addend: 0x0, symName: __ZNSt15__allocated_ptrISaISt23_Sp_counted_ptr_inplaceIN4game8LocationESaIvELN9__gnu_cxx12_Lock_policyE2EEEEaSEDn, symObjAddr: 0xE364, symBinAddr: 0x100026AD0, symSize: 0x20 }
  - { offset: 0xF2F96, size: 0x8, addend: 0x0, symName: __ZNSt23_Sp_counted_ptr_inplaceIN4game8LocationESaIvELN9__gnu_cxx12_Lock_policyE2EEC1IJRfS7_RNS0_9DirectionEEEES2_DpOT_, symObjAddr: 0xE278, symBinAddr: 0x1000269E4, symSize: 0xEC }
  - { offset: 0xF3046, size: 0x8, addend: 0x0, symName: __ZNSt15__allocated_ptrISaISt23_Sp_counted_ptr_inplaceIN4game8LocationESaIvELN9__gnu_cxx12_Lock_policyE2EEEE3getEv, symObjAddr: 0xE258, symBinAddr: 0x1000269C4, symSize: 0x20 }
  - { offset: 0xF3094, size: 0x8, addend: 0x0, symName: __ZNSt15__allocated_ptrISaISt23_Sp_counted_ptr_inplaceIN4game8LocationESaIvELN9__gnu_cxx12_Lock_policyE2EEEED1Ev, symObjAddr: 0xE1C8, symBinAddr: 0x100026934, symSize: 0x90 }
  - { offset: 0xF313A, size: 0x8, addend: 0x0, symName: __ZSt18__allocate_guardedISaISt23_Sp_counted_ptr_inplaceIN4game8LocationESaIvELN9__gnu_cxx12_Lock_policyE2EEEESt15__allocated_ptrIT_ERS9_, symObjAddr: 0xE0FC, symBinAddr: 0x100026868, symSize: 0xCC }
  - { offset: 0xF3272, size: 0x8, addend: 0x0, symName: __ZSt8_DestroyISt10shared_ptrIN4game4TailEEEvPT_, symObjAddr: 0xDC40, symBinAddr: 0x100026848, symSize: 0x20 }
  - { offset: 0xF32A4, size: 0x8, addend: 0x0, symName: __ZSt11__addressofISt10shared_ptrIN4game4TailEEEPT_RS4_, symObjAddr: 0xDC2C, symBinAddr: 0x100026834, symSize: 0x14 }
  - { offset: 0xF32EC, size: 0x8, addend: 0x0, symName: __ZSt12__relocate_aIPSt10shared_ptrIN4game4TailEES4_SaIS3_EET0_T_S7_S6_RT1_, symObjAddr: 0xD98C, symBinAddr: 0x1000267D8, symSize: 0x5C }
  - { offset: 0xF3388, size: 0x8, addend: 0x0, symName: __ZSt4swapIPN4game4TailEENSt9enable_ifIXsrSt6__and_IJSt6__not_ISt15__is_tuple_likeIT_EESt21is_move_constructibleIS7_ESt18is_move_assignableIS7_EEE5valueEvE4typeERS7_SH_, symObjAddr: 0xD938, symBinAddr: 0x100026784, symSize: 0x54 }
  - { offset: 0xF3411, size: 0x8, addend: 0x0, symName: __ZNSt16basic_format_argISt20basic_format_contextINSt8__format10_Sink_iterIcEEcEEC1ImEERT_, symObjAddr: 0xD8FC, symBinAddr: 0x100026748, symSize: 0x3C }
  - { offset: 0xF34BA, size: 0x8, addend: 0x0, symName: __ZNSt14__shared_countILN9__gnu_cxx12_Lock_policyE2EEC1IPN4game6PlayerEEET_, symObjAddr: 0xD808, symBinAddr: 0x1000266A8, symSize: 0xA0 }
  - { offset: 0xF3546, size: 0x8, addend: 0x0, symName: __ZNSt5dequeISt10shared_ptrIN4game8LocationEESaIS3_EE17_M_reallocate_mapEmb, symObjAddr: 0xD5C4, symBinAddr: 0x100026464, symSize: 0x244 }
  - { offset: 0xF35FB, size: 0x8, addend: 0x0, symName: __ZNKSt11_Deque_baseISt10shared_ptrIN4game8LocationEESaIS3_EE19_M_get_Tp_allocatorEv, symObjAddr: 0xD5B0, symBinAddr: 0x100026450, symSize: 0x14 }
  - { offset: 0xF3621, size: 0x8, addend: 0x0, symName: __ZNSt5dequeISt10shared_ptrIN4game8LocationEESaIS3_EE11_S_max_sizeERKS4_, symObjAddr: 0xD57C, symBinAddr: 0x10002641C, symSize: 0x34 }
  - { offset: 0xF3671, size: 0x8, addend: 0x0, symName: __ZNSt12__shared_ptrIN4game8LocationELN9__gnu_cxx12_Lock_policyE2EE31_M_enable_shared_from_this_withIS1_S1_EENSt9enable_ifIXntsrNS4_15__has_esft_baseIT0_vEE5valueEvE4typeEPT_, symObjAddr: 0xD564, symBinAddr: 0x100026404, symSize: 0x18 }
  - { offset: 0xF3782, size: 0x8, addend: 0x0, symName: __ZNSt14__shared_countILN9__gnu_cxx12_Lock_policyE2EEC1IN4game8LocationESaIvEJRfS7_RNS4_9DirectionEEEERPT_St20_Sp_alloc_shared_tagIT0_EDpOT1_, symObjAddr: 0xD404, symBinAddr: 0x1000262A4, symSize: 0x160 }
  - { offset: 0xF393C, size: 0x8, addend: 0x0, symName: __ZNKSt11_Deque_baseISt10shared_ptrIN4game8LocationEESaIS3_EE20_M_get_map_allocatorEv, symObjAddr: 0xD3BC, symBinAddr: 0x10002625C, symSize: 0x48 }
  - { offset: 0xF39B2, size: 0x8, addend: 0x0, symName: __ZNSt12_Destroy_auxILb0EE9__destroyIPSt10shared_ptrIN4game4TailEEEEvT_S7_, symObjAddr: 0xC7C8, symBinAddr: 0x100026210, symSize: 0x4C }
  - { offset: 0xF3A0E, size: 0x8, addend: 0x0, symName: __ZNKSt7__cxx1112basic_stringIcSt11char_traitsIcESaIcEE8_M_limitEmm, symObjAddr: 0xC2A8, symBinAddr: 0x1000261A4, symSize: 0x6C }
  - { offset: 0xF3A67, size: 0x8, addend: 0x0, symName: __ZNSt6vectorISt10shared_ptrIN4game4TailEESaIS3_EE11_S_relocateEPS3_S6_S6_RS4_, symObjAddr: 0xC274, symBinAddr: 0x100026170, symSize: 0x34 }
  - { offset: 0xF3AC4, size: 0x8, addend: 0x0, symName: __ZSt12__to_addressISt10shared_ptrIN4game4TailEEEPT_S5_, symObjAddr: 0xC260, symBinAddr: 0x10002615C, symSize: 0x14 }
  - { offset: 0xF3AFA, size: 0x8, addend: 0x0, symName: __ZNSt12_Vector_baseISt10shared_ptrIN4game4TailEESaIS3_EE11_M_allocateEm, symObjAddr: 0xC19C, symBinAddr: 0x100026098, symSize: 0xC4 }
  - { offset: 0xF3BA8, size: 0x8, addend: 0x0, symName: __ZNK9__gnu_cxx17__normal_iteratorIPSt10shared_ptrIN4game4TailEESt6vectorIS4_SaIS4_EEE4baseEv, symObjAddr: 0xC188, symBinAddr: 0x100026084, symSize: 0x14 }
  - { offset: 0xF3BCE, size: 0x8, addend: 0x0, symName: __ZSt12construct_atISt10shared_ptrIN4game4TailEEJRKS3_EEDTgsnwcvPvLi0E_T_pispcl7declvalIT0_EEEEPS7_DpOS8_, symObjAddr: 0xC120, symBinAddr: 0x10002601C, symSize: 0x68 }
  - { offset: 0xF3C23, size: 0x8, addend: 0x0, symName: __ZSt7forwardIRKSt10shared_ptrIN4game4TailEEEOT_RNSt16remove_referenceIS6_E4typeE, symObjAddr: 0xC10C, symBinAddr: 0x100026008, symSize: 0x14 }
  - { offset: 0xF3C73, size: 0x8, addend: 0x0, symName: __ZNSt12__shared_ptrIN4game6PlayerELN9__gnu_cxx12_Lock_policyE2EEC2Ev, symObjAddr: 0xC0E0, symBinAddr: 0x100025FDC, symSize: 0x2C }
  - { offset: 0xF3CD8, size: 0x8, addend: 0x0, symName: __ZNSt12__shared_ptrIN4game6PlayerELN9__gnu_cxx12_Lock_policyE2EEC2IN6engine6SpriteEEERKS_IT_LS3_2EEPS1_, symObjAddr: 0xC098, symBinAddr: 0x100025F94, symSize: 0x48 }
  - { offset: 0xF3D19, size: 0x8, addend: 0x0, symName: __ZNSt12__shared_ptrIN4game4TailELN9__gnu_cxx12_Lock_policyE2EE4swapERS4_, symObjAddr: 0xC054, symBinAddr: 0x100025F50, symSize: 0x44 }
  - { offset: 0xF3D7C, size: 0x8, addend: 0x0, symName: __ZNSt12__shared_ptrIN4game4TailELN9__gnu_cxx12_Lock_policyE2EEC1EOS4_, symObjAddr: 0xBFF8, symBinAddr: 0x100025EF4, symSize: 0x5C }
  - { offset: 0xF3DAF, size: 0x8, addend: 0x0, symName: __ZNSt12__shared_ptrIN4game4TailELN9__gnu_cxx12_Lock_policyE2EEC2EOS4_, symObjAddr: 0xBF9C, symBinAddr: 0x100025E98, symSize: 0x5C }
  - { offset: 0xF3DE1, size: 0x8, addend: 0x0, symName: __ZSt4moveIRSt12__shared_ptrIN4game4TailELN9__gnu_cxx12_Lock_policyE2EEEONSt16remove_referenceIT_E4typeEOS8_, symObjAddr: 0xBF88, symBinAddr: 0x100025E84, symSize: 0x14 }
  - { offset: 0xF3E13, size: 0x8, addend: 0x0, symName: __ZNSt8__format10_Arg_storeISt20basic_format_contextINS_10_Sink_iterIcEEcEJyEE11_S_make_eltImEENS_10_Arg_valueIS4_EERT_, symObjAddr: 0xBF64, symBinAddr: 0x100025E60, symSize: 0x24 }
  - { offset: 0xF3E5B, size: 0x8, addend: 0x0, symName: __ZNKSt12__shared_ptrIN4game4TailELN9__gnu_cxx12_Lock_policyE2EE3getEv, symObjAddr: 0xBF4C, symBinAddr: 0x100025E48, symSize: 0x18 }
  - { offset: 0xF3E85, size: 0x8, addend: 0x0, symName: __ZNKSt12__shared_ptrIN4game6PlayerELN9__gnu_cxx12_Lock_policyE2EE3getEv, symObjAddr: 0xBE28, symBinAddr: 0x100025E30, symSize: 0x18 }
  - { offset: 0xF3EAF, size: 0x8, addend: 0x0, symName: __ZNSt12__shared_ptrIN4game6PlayerELN9__gnu_cxx12_Lock_policyE2EE31_M_enable_shared_from_this_withIS1_S1_EENSt9enable_ifIXntsrNS4_15__has_esft_baseIT0_vEE5valueEvE4typeEPT_, symObjAddr: 0xBE10, symBinAddr: 0x100025E18, symSize: 0x18 }
  - { offset: 0xF3F2A, size: 0x8, addend: 0x0, symName: __ZNSt14__shared_countILN9__gnu_cxx12_Lock_policyE2EEC1IPN4game6PlayerEEET_St17integral_constantIbLb0EE, symObjAddr: 0xBDE4, symBinAddr: 0x100025DEC, symSize: 0x2C }
  - { offset: 0xF3FAF, size: 0x8, addend: 0x0, symName: __ZNSt15_Deque_iteratorISt10shared_ptrIN4game8LocationEERS3_PS3_E14_S_buffer_sizeEv, symObjAddr: 0xBDCC, symBinAddr: 0x100025DD4, symSize: 0x18 }
  - { offset: 0xF3FCB, size: 0x8, addend: 0x0, symName: __ZNSt15_Deque_iteratorISt10shared_ptrIN4game8LocationEERS3_PS3_E11_M_set_nodeEPS5_, symObjAddr: 0xBD70, symBinAddr: 0x100025D78, symSize: 0x5C }
  - { offset: 0xF4006, size: 0x8, addend: 0x0, symName: __ZNSt11_Deque_baseISt10shared_ptrIN4game8LocationEESaIS3_EE16_M_allocate_nodeEv, symObjAddr: 0xBCB8, symBinAddr: 0x100025CC0, symSize: 0xB8 }
  - { offset: 0xF40A3, size: 0x8, addend: 0x0, symName: __ZNSt5dequeISt10shared_ptrIN4game8LocationEESaIS3_EE22_M_reserve_map_at_backEm, symObjAddr: 0xBC58, symBinAddr: 0x100025C60, symSize: 0x60 }
  - { offset: 0xF40DE, size: 0x8, addend: 0x0, symName: __ZNKSt5dequeISt10shared_ptrIN4game8LocationEESaIS3_EE8max_sizeEv, symObjAddr: 0xBC38, symBinAddr: 0x100025C40, symSize: 0x20 }
  - { offset: 0xF4104, size: 0x8, addend: 0x0, symName: __ZSt12construct_atISt10shared_ptrIN4game8LocationEEJRKS3_EEDTgsnwcvPvLi0E_T_pispcl7declvalIT0_EEEEPS7_DpOS8_, symObjAddr: 0xBBD0, symBinAddr: 0x100025BD8, symSize: 0x68 }
  - { offset: 0xF4175, size: 0x8, addend: 0x0, symName: __ZNSt10shared_ptrIN4game8LocationEEC1ERKS2_, symObjAddr: 0xBBA8, symBinAddr: 0x100025BB0, symSize: 0x28 }
  - { offset: 0xF41C3, size: 0x8, addend: 0x0, symName: __ZNSt12__shared_ptrIN4game8LocationELN9__gnu_cxx12_Lock_policyE2EEC2ERKS4_, symObjAddr: 0xBB60, symBinAddr: 0x100025B68, symSize: 0x48 }
  - { offset: 0xF41F5, size: 0x8, addend: 0x0, symName: __ZSt7forwardIRKSt10shared_ptrIN4game8LocationEEEOT_RNSt16remove_referenceIS6_E4typeE, symObjAddr: 0xBB4C, symBinAddr: 0x100025B54, symSize: 0x14 }
  - { offset: 0xF428B, size: 0x8, addend: 0x0, symName: __ZNSt12__shared_ptrIN4game8LocationELN9__gnu_cxx12_Lock_policyE2EEC2ISaIvEJRfS7_RNS0_9DirectionEEEESt20_Sp_alloc_shared_tagIT_EDpOT0_, symObjAddr: 0xBAB0, symBinAddr: 0x100025AB8, symSize: 0x9C }
  - { offset: 0xF42FE, size: 0x8, addend: 0x0, symName: __ZNSt11_Deque_baseISt10shared_ptrIN4game8LocationEESaIS3_EE17_M_deallocate_mapEPPS3_m, symObjAddr: 0xBA24, symBinAddr: 0x100025A2C, symSize: 0x8C }
  - { offset: 0xF43FB, size: 0x8, addend: 0x0, symName: __ZSt8_DestroyIPSt10shared_ptrIN4game4TailEEEvT_S5_, symObjAddr: 0xB028, symBinAddr: 0x1000259E8, symSize: 0x44 }
  - { offset: 0xF454A, size: 0x8, addend: 0x0, symName: __ZNSt7__cxx1112basic_stringIcSt11char_traitsIcESaIcEEC1ERKS4_mm, symObjAddr: 0xA7D4, symBinAddr: 0x10002591C, symSize: 0xCC }
  - { offset: 0xF461D, size: 0x8, addend: 0x0, symName: __ZNSt6vectorISt10shared_ptrIN4game4TailEESaIS3_EE17_M_realloc_appendIJRKS3_EEEvDpOT_, symObjAddr: 0xA590, symBinAddr: 0x100025794, symSize: 0x188 }
  - { offset: 0xF47A4, size: 0x8, addend: 0x0, symName: __ZZNSt6vectorISt10shared_ptrIN4game4TailEESaIS3_EE17_M_realloc_appendIJRKS3_EEEvDpOT_EN6_GuardC1EPS3_mRS4_, symObjAddr: 0xA4B8, symBinAddr: 0x1000256BC, symSize: 0x44 }
  - { offset: 0xF47E9, size: 0x8, addend: 0x0, symName: __ZZNSt6vectorISt10shared_ptrIN4game4TailEESaIS3_EE17_M_realloc_appendIJRKS3_EEEvDpOT_EN6_GuardD1Ev, symObjAddr: 0xA4FC, symBinAddr: 0x100025700, symSize: 0x94 }
  - { offset: 0xF491A, size: 0x8, addend: 0x0, symName: __ZN9__gnu_cxx17__normal_iteratorIPSt10shared_ptrIN4game4TailEESt6vectorIS4_SaIS4_EEEC1ERKS5_, symObjAddr: 0xA490, symBinAddr: 0x100025694, symSize: 0x28 }
  - { offset: 0xF494C, size: 0x8, addend: 0x0, symName: __ZN9__gnu_cxxmiIPSt10shared_ptrIN4game4TailEESt6vectorIS4_SaIS4_EEEENS_17__normal_iteratorIT_T0_E15difference_typeERKSC_SF_, symObjAddr: 0xA450, symBinAddr: 0x100025654, symSize: 0x40 }
  - { offset: 0xF4999, size: 0x8, addend: 0x0, symName: __ZNSt6vectorISt10shared_ptrIN4game4TailEESaIS3_EE11_S_max_sizeERKS4_, symObjAddr: 0xA41C, symBinAddr: 0x100025620, symSize: 0x34 }
  - { offset: 0xF49E9, size: 0x8, addend: 0x0, symName: __ZNKSt12_Vector_baseISt10shared_ptrIN4game4TailEESaIS3_EE19_M_get_Tp_allocatorEv, symObjAddr: 0xA408, symBinAddr: 0x10002560C, symSize: 0x14 }
  - { offset: 0xF4A13, size: 0x8, addend: 0x0, symName: __ZNKSt6vectorISt10shared_ptrIN4game4TailEESaIS3_EE8max_sizeEv, symObjAddr: 0xA3E8, symBinAddr: 0x1000255EC, symSize: 0x20 }
  - { offset: 0xF4A3D, size: 0x8, addend: 0x0, symName: __ZNKSt6vectorISt10shared_ptrIN4game4TailEESaIS3_EE12_M_check_lenEmPKc, symObjAddr: 0xA318, symBinAddr: 0x10002551C, symSize: 0xD0 }
  - { offset: 0xF4AFA, size: 0x8, addend: 0x0, symName: __ZNSt10shared_ptrIN4game6PlayerEEC1Ev, symObjAddr: 0xA2F8, symBinAddr: 0x1000254FC, symSize: 0x20 }
  - { offset: 0xF4B65, size: 0x8, addend: 0x0, symName: __ZNSt10shared_ptrIN4game6PlayerEEC1IN6engine6SpriteEEERKS_IT_EPS1_, symObjAddr: 0xA2C8, symBinAddr: 0x1000254CC, symSize: 0x30 }
  - { offset: 0xF4BA6, size: 0x8, addend: 0x0, symName: __ZNSt12__shared_ptrIN4game4TailELN9__gnu_cxx12_Lock_policyE2EEaSEOS4_, symObjAddr: 0xA26C, symBinAddr: 0x100025488, symSize: 0x44 }
  - { offset: 0xF4BE4, size: 0x8, addend: 0x0, symName: __ZSt4moveIRSt10shared_ptrIN4game4TailEEEONSt16remove_referenceIT_E4typeEOS6_, symObjAddr: 0xA258, symBinAddr: 0x100025474, symSize: 0x14 }
  - { offset: 0xF4C61, size: 0x8, addend: 0x0, symName: __ZNSt17basic_format_argsISt20basic_format_contextINSt8__format10_Sink_iterIcEEcEEC1IJyEEERKNS1_10_Arg_storeIS4_JDpT_EEE, symObjAddr: 0xA1F8, symBinAddr: 0x100025414, symSize: 0x60 }
  - { offset: 0xF4CED, size: 0x8, addend: 0x0, symName: __ZNK9__gnu_cxx17__normal_iteratorIPSt10shared_ptrIN4game4TailEESt6vectorIS4_SaIS4_EEEmiEl, symObjAddr: 0xA1B4, symBinAddr: 0x1000253D0, symSize: 0x44 }
  - { offset: 0xF4D28, size: 0x8, addend: 0x0, symName: __ZNSt6vectorISt10shared_ptrIN4game4TailEESaIS3_EE3endEv, symObjAddr: 0xA18C, symBinAddr: 0x1000253A8, symSize: 0x28 }
  - { offset: 0xF4D52, size: 0x8, addend: 0x0, symName: __ZNKSt19__shared_ptr_accessIN4game4TailELN9__gnu_cxx12_Lock_policyE2ELb0ELb0EE6_M_getEv, symObjAddr: 0xA170, symBinAddr: 0x10002538C, symSize: 0x1C }
  - { offset: 0xF4D7C, size: 0x8, addend: 0x0, symName: __ZNK9__gnu_cxx17__normal_iteratorIPSt10shared_ptrIN4game4TailEESt6vectorIS4_SaIS4_EEEdeEv, symObjAddr: 0xA158, symBinAddr: 0x100025374, symSize: 0x18 }
  - { offset: 0xF4DA6, size: 0x8, addend: 0x0, symName: __ZNSt6vectorISt10shared_ptrIN4game4TailEESaIS3_EE5beginEv, symObjAddr: 0xA134, symBinAddr: 0x100025350, symSize: 0x24 }
  - { offset: 0xF4DD0, size: 0x8, addend: 0x0, symName: __ZNKSt19__shared_ptr_accessIN4game6PlayerELN9__gnu_cxx12_Lock_policyE2ELb0ELb0EE6_M_getEv, symObjAddr: 0xA0A4, symBinAddr: 0x100025334, symSize: 0x1C }
  - { offset: 0xF4E2B, size: 0x8, addend: 0x0, symName: __ZNSt12__shared_ptrIN6engine6SpriteELN9__gnu_cxx12_Lock_policyE2EEC2IN4game6PlayerEvEERKS_IT_LS3_2EE, symObjAddr: 0xA05C, symBinAddr: 0x1000252EC, symSize: 0x48 }
  - { offset: 0xF4E94, size: 0x8, addend: 0x0, symName: __ZNSt12__shared_ptrIN4game6PlayerELN9__gnu_cxx12_Lock_policyE2EEC2IS1_vEEPT_, symObjAddr: 0xA018, symBinAddr: 0x1000252A8, symSize: 0x44 }
  - { offset: 0xF4ECC, size: 0x8, addend: 0x0, symName: __ZNSt12_Vector_baseISt10shared_ptrIN4game4TailEESaIS3_EE13_M_deallocateEPS3_m, symObjAddr: 0x9F60, symBinAddr: 0x10002521C, symSize: 0x8C }
  - { offset: 0xF4FB8, size: 0x8, addend: 0x0, symName: __ZNSt12_Vector_baseISt10shared_ptrIN4game4TailEESaIS3_EE17_Vector_impl_dataC2Ev, symObjAddr: 0x9F34, symBinAddr: 0x1000251F0, symSize: 0x2C }
  - { offset: 0xF4FF7, size: 0x8, addend: 0x0, symName: __ZStmiRKSt15_Deque_iteratorISt10shared_ptrIN4game8LocationEERS3_PS3_ES8_, symObjAddr: 0x9E08, symBinAddr: 0x10002515C, symSize: 0x94 }
  - { offset: 0xF5036, size: 0x8, addend: 0x0, symName: __ZNSt5dequeISt10shared_ptrIN4game8LocationEESaIS3_EE16_M_push_back_auxIJRKS3_EEEvDpOT_, symObjAddr: 0x9D1C, symBinAddr: 0x100025070, symSize: 0xEC }
  - { offset: 0xF5159, size: 0x8, addend: 0x0, symName: __ZNSt10shared_ptrIN4game8LocationEEC1ISaIvEJRfS5_RNS0_9DirectionEEEESt20_Sp_alloc_shared_tagIT_EDpOT0_, symObjAddr: 0x9CA8, symBinAddr: 0x100024FFC, symSize: 0x74 }
  - { offset: 0xF51CF, size: 0x8, addend: 0x0, symName: __ZSt7forwardIRN4game9DirectionEEOT_RNSt16remove_referenceIS3_E4typeE, symObjAddr: 0x9C94, symBinAddr: 0x100024FE8, symSize: 0x14 }
  - { offset: 0xF5208, size: 0x8, addend: 0x0, symName: __ZSt7forwardIRfEOT_RNSt16remove_referenceIS1_E4typeE, symObjAddr: 0x9C80, symBinAddr: 0x100024FD4, symSize: 0x14 }
  - { offset: 0xF5286, size: 0x8, addend: 0x0, symName: __ZNSt12_Vector_baseISt10shared_ptrIN4game4TailEESaIS3_EE19_M_get_Tp_allocatorEv, symObjAddr: 0x9138, symBinAddr: 0x100024FC0, symSize: 0x14 }
  - { offset: 0xF5B6F, size: 0x8, addend: 0x0, symName: __ZNKSt7__cxx1112basic_stringIcSt11char_traitsIcESaIcEE6substrEmm, symObjAddr: 0x6F38, symBinAddr: 0x100024F6C, symSize: 0x54 }
  - { offset: 0xF5BBB, size: 0x8, addend: 0x0, symName: __ZNSt6vectorISt10shared_ptrIN4game4TailEESaIS3_EE9push_backERKS3_, symObjAddr: 0x6E04, symBinAddr: 0x100024EE0, symSize: 0x8C }
  - { offset: 0xF5C28, size: 0x8, addend: 0x0, symName: __ZSt20dynamic_pointer_castIN4game6PlayerEN6engine6SpriteEESt10shared_ptrIT_ERKS4_IT0_E, symObjAddr: 0x6D84, symBinAddr: 0x100024E60, symSize: 0x80 }
  - { offset: 0xF5C8C, size: 0x8, addend: 0x0, symName: __ZNSt10shared_ptrIN4game4TailEEaSEOS2_, symObjAddr: 0x6D48, symBinAddr: 0x100024E24, symSize: 0x3C }
  - { offset: 0xF5CC3, size: 0x8, addend: 0x0, symName: __ZSt6formatIJmEENSt7__cxx1112basic_stringIcSt11char_traitsIcESaIcEEESt19basic_format_stringIcJDpNSt13type_identityIT_E4typeEEEDpOS8_, symObjAddr: 0x6C7C, symBinAddr: 0x100024DA0, symSize: 0x84 }
  - { offset: 0xF5DB6, size: 0x8, addend: 0x0, symName: __ZNSt6vectorISt10shared_ptrIN4game4TailEESaIS3_EE4backEv, symObjAddr: 0x6C44, symBinAddr: 0x100024D68, symSize: 0x38 }
  - { offset: 0xF5DE0, size: 0x8, addend: 0x0, symName: __ZNKSt19__shared_ptr_accessIN4game4TailELN9__gnu_cxx12_Lock_policyE2ELb0ELb0EEptEv, symObjAddr: 0x6C28, symBinAddr: 0x100024D4C, symSize: 0x1C }
  - { offset: 0xF5E0A, size: 0x8, addend: 0x0, symName: __ZNSt6vectorISt10shared_ptrIN4game4TailEESaIS3_EE5frontEv, symObjAddr: 0x6C00, symBinAddr: 0x100024D24, symSize: 0x28 }
  - { offset: 0xF5E34, size: 0x8, addend: 0x0, symName: __ZNKSt6vectorISt10shared_ptrIN4game4TailEESaIS3_EE4sizeEv, symObjAddr: 0x6BD8, symBinAddr: 0x100024CFC, symSize: 0x28 }
  - { offset: 0xF5E5E, size: 0x8, addend: 0x0, symName: __ZNKSt19__shared_ptr_accessIN4game6PlayerELN9__gnu_cxx12_Lock_policyE2ELb0ELb0EEptEv, symObjAddr: 0x6B64, symBinAddr: 0x100024CE0, symSize: 0x1C }
  - { offset: 0xF5EB9, size: 0x8, addend: 0x0, symName: __ZNSt10shared_ptrIN6engine6SpriteEEC1IN4game6PlayerEvEERKS_IT_E, symObjAddr: 0x6B3C, symBinAddr: 0x100024CB8, symSize: 0x28 }
  - { offset: 0xF5F21, size: 0x8, addend: 0x0, symName: __ZNSt10shared_ptrIN4game6PlayerEEC1IS1_vEEPT_, symObjAddr: 0x6B14, symBinAddr: 0x100024C90, symSize: 0x28 }
  - { offset: 0xF5F7D, size: 0x8, addend: 0x0, symName: __ZNSt12_Vector_baseISt10shared_ptrIN4game4TailEESaIS3_EED2Ev, symObjAddr: 0x6AA4, symBinAddr: 0x100024C40, symSize: 0x50 }
  - { offset: 0xF5FDD, size: 0x8, addend: 0x0, symName: __ZNSt12_Vector_baseISt10shared_ptrIN4game4TailEESaIS3_EE12_Vector_implC1EvQ26is_default_constructible_vIN9__gnu_cxx14__alloc_traitsIT0_NS9_10value_typeEE6rebindIT_E5otherEE, symObjAddr: 0x6A6C, symBinAddr: 0x100024C08, symSize: 0x38 }
  - { offset: 0xF6049, size: 0x8, addend: 0x0, symName: __ZNKSt5dequeISt10shared_ptrIN4game8LocationEESaIS3_EE4sizeEv, symObjAddr: 0x6A3C, symBinAddr: 0x100024BD8, symSize: 0x30 }
  - { offset: 0xF6073, size: 0x8, addend: 0x0, symName: __ZNSt5dequeISt10shared_ptrIN4game8LocationEESaIS3_EE9push_backERKS3_, symObjAddr: 0x69AC, symBinAddr: 0x100024B48, symSize: 0x90 }
  - { offset: 0xF60E0, size: 0x8, addend: 0x0, symName: __ZSt11make_sharedIN4game8LocationEJRfS2_RNS0_9DirectionEEESt10shared_ptrIT_EDpOT0_, symObjAddr: 0x6938, symBinAddr: 0x100024AD4, symSize: 0x74 }
  - { offset: 0xF6223, size: 0x8, addend: 0x0, symName: __ZNSt6vectorISt10shared_ptrIN4game4TailEESaIS3_EED1Ev, symObjAddr: 0x5DB8, symBinAddr: 0x100024A78, symSize: 0x5C }
  - { offset: 0xF627F, size: 0x8, addend: 0x0, symName: __ZN4game6Player19on_action_key_rightEv, symObjAddr: 0x498C, symBinAddr: 0x100024A0C, symSize: 0x6C }
  - { offset: 0xF62A9, size: 0x8, addend: 0x0, symName: __ZN4game6Player18on_action_key_leftEv, symObjAddr: 0x4920, symBinAddr: 0x1000249A0, symSize: 0x6C }
  - { offset: 0xF62D3, size: 0x8, addend: 0x0, symName: __ZN4game6Player18on_action_key_downEv, symObjAddr: 0x48B4, symBinAddr: 0x100024934, symSize: 0x6C }
  - { offset: 0xF62FD, size: 0x8, addend: 0x0, symName: __ZN4game6Player16on_action_key_upEv, symObjAddr: 0x484C, symBinAddr: 0x1000248CC, symSize: 0x68 }
  - { offset: 0xF6327, size: 0x8, addend: 0x0, symName: __ZN4game6Player19on_action_key_spaceEv, symObjAddr: 0x481C, symBinAddr: 0x10002489C, symSize: 0x30 }
  - { offset: 0xF6351, size: 0x8, addend: 0x0, symName: __ZN4game6Player6updateESt6vectorISt10shared_ptrIN6engine6SpriteEESaIS5_EE, symObjAddr: 0x4058, symBinAddr: 0x1000240D8, symSize: 0x7C4 }
  - { offset: 0xF6604, size: 0x8, addend: 0x0, symName: __ZN4game6Player8add_tailEv, symObjAddr: 0x3CF0, symBinAddr: 0x100023E38, symSize: 0x2A0 }
  - { offset: 0xF6688, size: 0x8, addend: 0x0, symName: __ZNSt10shared_ptrIN4game6PlayerEEC1ERKS2_, symObjAddr: 0x3CC8, symBinAddr: 0x100023E10, symSize: 0x28 }
  - { offset: 0xF66D6, size: 0x8, addend: 0x0, symName: __ZNSt12__shared_ptrIN4game6PlayerELN9__gnu_cxx12_Lock_policyE2EEC2ERKS4_, symObjAddr: 0x3C80, symBinAddr: 0x100023DC8, symSize: 0x48 }
  - { offset: 0xF6724, size: 0x8, addend: 0x0, symName: __ZNSt10shared_ptrIN4game4TailEEC1ERKS2_, symObjAddr: 0x3C58, symBinAddr: 0x100023DA0, symSize: 0x28 }
  - { offset: 0xF6772, size: 0x8, addend: 0x0, symName: __ZNSt12__shared_ptrIN4game4TailELN9__gnu_cxx12_Lock_policyE2EEC2ERKS4_, symObjAddr: 0x3C10, symBinAddr: 0x100023D58, symSize: 0x48 }
  - { offset: 0xF67A1, size: 0x8, addend: 0x0, symName: __ZN4game6Player4moveEff, symObjAddr: 0x3A94, symBinAddr: 0x100023BF8, symSize: 0x160 }
  - { offset: 0xF6807, size: 0x8, addend: 0x0, symName: __ZN4game6Player4makeEffffNSt7__cxx1112basic_stringIcSt11char_traitsIcESaIcEEES6_, symObjAddr: 0x376C, symBinAddr: 0x1000238D0, symSize: 0x328 }
  - { offset: 0xF6A1B, size: 0x8, addend: 0x0, symName: __ZN4game6PlayerC1EffffNSt7__cxx1112basic_stringIcSt11char_traitsIcESaIcEEES6_, symObjAddr: 0x359C, symBinAddr: 0x1000237D0, symSize: 0x100 }
  - { offset: 0xF6A84, size: 0x8, addend: 0x0, symName: __ZN4game6PlayerC2EffffNSt7__cxx1112basic_stringIcSt11char_traitsIcESaIcEEES6_, symObjAddr: 0x349C, symBinAddr: 0x1000236D0, symSize: 0x100 }
  - { offset: 0xF6B03, size: 0x8, addend: 0x0, symName: __ZNSt6vectorISt10shared_ptrIN4game4TailEESaIS3_EEC1Ev, symObjAddr: 0x347C, symBinAddr: 0x1000236B0, symSize: 0x20 }
  - { offset: 0xF6B43, size: 0x8, addend: 0x0, symName: __ZNSt12_Vector_baseISt10shared_ptrIN4game4TailEESaIS3_EEC2Ev, symObjAddr: 0x345C, symBinAddr: 0x100023690, symSize: 0x20 }
  - { offset: 0xF6B90, size: 0x8, addend: 0x0, symName: __ZNSt12_Vector_baseISt10shared_ptrIN4game4TailEESaIS3_EE12_Vector_implD1Ev, symObjAddr: 0x343C, symBinAddr: 0x100023670, symSize: 0x20 }
  - { offset: 0xF6BD9, size: 0x8, addend: 0x0, symName: __ZN4game4Tail12add_to_queueEffNS_9DirectionE, symObjAddr: 0x33CC, symBinAddr: 0x100023600, symSize: 0x70 }
  - { offset: 0xF6C6A, size: 0x8, addend: 0x0, symName: __ZNSt10shared_ptrIN4game8LocationEED1Ev, symObjAddr: 0x33AC, symBinAddr: 0x1000235E0, symSize: 0x20 }
  - { offset: 0xF6CB4, size: 0x8, addend: 0x0, symName: __ZNSt12__shared_ptrIN4game8LocationELN9__gnu_cxx12_Lock_policyE2EED2Ev, symObjAddr: 0x3388, symBinAddr: 0x1000235BC, symSize: 0x24 }
  - { offset: 0xF6D01, size: 0x8, addend: 0x0, symName: __ZNSt10shared_ptrIN4game4TailEED1Ev, symObjAddr: 0x3324, symBinAddr: 0x10002359C, symSize: 0x20 }
  - { offset: 0xF6D4B, size: 0x8, addend: 0x0, symName: __ZNSt12__shared_ptrIN4game4TailELN9__gnu_cxx12_Lock_policyE2EED1Ev, symObjAddr: 0x3300, symBinAddr: 0x100023578, symSize: 0x24 }
  - { offset: 0xF6D75, size: 0x8, addend: 0x0, symName: __ZNSt12__shared_ptrIN4game4TailELN9__gnu_cxx12_Lock_policyE2EED2Ev, symObjAddr: 0x32DC, symBinAddr: 0x100023554, symSize: 0x24 }
  - { offset: 0xF6D97, size: 0x8, addend: 0x0, symName: __ZSt16__deque_buf_sizem, symObjAddr: 0x32AC, symBinAddr: 0x100023524, symSize: 0x30 }
  - { offset: 0xF6E05, size: 0x8, addend: 0x0, symName: __ZN4game8LocationC1EffNS_9DirectionE, symObjAddr: 0x3268, symBinAddr: 0x1000234E0, symSize: 0x44 }
  - { offset: 0xF6E66, size: 0x8, addend: 0x0, symName: __ZN4game12Food_Spawner4stopEv, symObjAddr: 0x26A4, symBinAddr: 0x1000234CC, symSize: 0x14 }
  - { offset: 0xF6E82, size: 0x8, addend: 0x0, symName: __ZN4game6Player13set_game_overEv, symObjAddr: 0x2620, symBinAddr: 0x1000234AC, symSize: 0x20 }
  - { offset: 0xF6EAC, size: 0x8, addend: 0x0, symName: __ZN4game6Player11give_pointsEi, symObjAddr: 0x25F0, symBinAddr: 0x10002347C, symSize: 0x30 }
  - { offset: 0xF6F0A, size: 0x8, addend: 0x0, symName: __ZN4game6PlayerD0Ev, symObjAddr: 0x25C8, symBinAddr: 0x100023454, symSize: 0x28 }
  - { offset: 0xF6F34, size: 0x8, addend: 0x0, symName: __ZN4game6PlayerD1Ev, symObjAddr: 0x2580, symBinAddr: 0x10002340C, symSize: 0x48 }
  - { offset: 0xF6F5A, size: 0x8, addend: 0x0, symName: __ZN6engine6Sprite12get_velocityEv, symObjAddr: 0x24BC, symBinAddr: 0x1000233F0, symSize: 0x1C }
  - { offset: 0xF6F80, size: 0x8, addend: 0x0, symName: __ZNSt19_Sp_make_shared_tag5_S_tiEv, symObjAddr: 0x23C8, symBinAddr: 0x1000233E4, symSize: 0xC }
  - { offset: 0xF6FA6, size: 0x8, addend: 0x0, symName: __ZZNSt19_Sp_make_shared_tag5_S_tiEvE5__tag, symObjAddr: 0x1CAE8, symBinAddr: 0x100034D30, symSize: 0x0 }
  - { offset: 0xF6FBD, size: 0x8, addend: 0x0, symName: __ZL18__gthread_active_pv, symObjAddr: 0x1910, symBinAddr: 0x1000233DC, symSize: 0x8 }
  - { offset: 0xF6FD9, size: 0x8, addend: 0x0, symName: __ZNKSt9type_infoeqERKS_, symObjAddr: 0x1860, symBinAddr: 0x10002332C, symSize: 0xB0 }
  - { offset: 0xF702C, size: 0x8, addend: 0x0, symName: __ZNKSt9type_info4nameEv, symObjAddr: 0x1824, symBinAddr: 0x1000232F0, symSize: 0x3C }
  - { offset: 0xFCF89, size: 0x8, addend: 0x0, symName: __ZNSt23mersenne_twister_engineIjLm32ELm624ELm397ELm31ELj2567483615ELm11ELj4294967295ELm7ELj2636928640ELm15ELj4022730752ELm18ELj1812433253EE11_M_gen_randEv, symObjAddr: 0x1078, symBinAddr: 0x100028968, symSize: 0x1C0 }
  - { offset: 0xFD072, size: 0x8, addend: 0x0, symName: __ZNSt8__detail4_ModIjLj624ELj1ELj0ELb1ELb1EE6__calcEj, symObjAddr: 0x1040, symBinAddr: 0x100028930, symSize: 0x38 }
  - { offset: 0xFD0AB, size: 0x8, addend: 0x0, symName: __ZNSt8__detail4_ModIjLj0ELj1ELj0ELb1ELb0EE6__calcEj, symObjAddr: 0x1024, symBinAddr: 0x100028914, symSize: 0x1C }
  - { offset: 0xFD0EC, size: 0x8, addend: 0x0, symName: __ZNSt23mersenne_twister_engineIjLm32ELm624ELm397ELm31ELj2567483615ELm11ELj4294967295ELm7ELj2636928640ELm15ELj4022730752ELm18ELj1812433253EEclEv, symObjAddr: 0xE40, symBinAddr: 0x100028860, symSize: 0xB4 }
  - { offset: 0xFD12A, size: 0x8, addend: 0x0, symName: __ZNSt24uniform_int_distributionIjE5_S_ndIySt23mersenne_twister_engineIjLm32ELm624ELm397ELm31ELj2567483615ELm11ELj4294967295ELm7ELj2636928640ELm15ELj4022730752ELm18ELj1812433253EEjEET1_RT0_S4_, symObjAddr: 0xD9C, symBinAddr: 0x1000287BC, symSize: 0xA4 }
  - { offset: 0xFD1CA, size: 0x8, addend: 0x0, symName: __ZNKSt24uniform_int_distributionIjE10param_type1aEv, symObjAddr: 0xD84, symBinAddr: 0x1000287A4, symSize: 0x18 }
  - { offset: 0xFD1F4, size: 0x8, addend: 0x0, symName: __ZNKSt24uniform_int_distributionIjE10param_type1bEv, symObjAddr: 0xD6C, symBinAddr: 0x10002878C, symSize: 0x18 }
  - { offset: 0xFD21A, size: 0x8, addend: 0x0, symName: __ZNSt8__detail5__modIjLj624ELj1ELj0EEET_S1_, symObjAddr: 0xD50, symBinAddr: 0x100028770, symSize: 0x1C }
  - { offset: 0xFD26B, size: 0x8, addend: 0x0, symName: __ZNSt8__detail5__modIjLj0ELj1ELj0EEET_S1_, symObjAddr: 0xD34, symBinAddr: 0x100028754, symSize: 0x1C }
  - { offset: 0xFD2BF, size: 0x8, addend: 0x0, symName: __ZNSt24uniform_int_distributionIjEclISt23mersenne_twister_engineIjLm32ELm624ELm397ELm31ELj2567483615ELm11ELj4294967295ELm7ELj2636928640ELm15ELj4022730752ELm18ELj1812433253EEEEjRT_RKNS0_10param_typeE, symObjAddr: 0xAA4, symBinAddr: 0x1000286AC, symSize: 0xA8 }
  - { offset: 0xFD41A, size: 0x8, addend: 0x0, symName: __ZNSt24uniform_int_distributionIjE10param_typeC1Ejj, symObjAddr: 0xA34, symBinAddr: 0x10002863C, symSize: 0x70 }
  - { offset: 0xFD46F, size: 0x8, addend: 0x0, symName: __ZNSt23mersenne_twister_engineIjLm32ELm624ELm397ELm31ELj2567483615ELm11ELj4294967295ELm7ELj2636928640ELm15ELj4022730752ELm18ELj1812433253EE4seedEj, symObjAddr: 0x968, symBinAddr: 0x100028570, symSize: 0xCC }
  - { offset: 0xFD4F2, size: 0x8, addend: 0x0, symName: __ZNSt24uniform_int_distributionIjEclISt23mersenne_twister_engineIjLm32ELm624ELm397ELm31ELj2567483615ELm11ELj4294967295ELm7ELj2636928640ELm15ELj4022730752ELm18ELj1812433253EEEEjRT_, symObjAddr: 0x5E8, symBinAddr: 0x100028544, symSize: 0x2C }
  - { offset: 0xFD569, size: 0x8, addend: 0x0, symName: __ZNSt24uniform_int_distributionIjEC1Ejj, symObjAddr: 0x5B8, symBinAddr: 0x100028514, symSize: 0x30 }
  - { offset: 0xFD5C9, size: 0x8, addend: 0x0, symName: __ZNSt23mersenne_twister_engineIjLm32ELm624ELm397ELm31ELj2567483615ELm11ELj4294967295ELm7ELj2636928640ELm15ELj4022730752ELm18ELj1812433253EEC1Ej, symObjAddr: 0x590, symBinAddr: 0x1000284EC, symSize: 0x28 }
  - { offset: 0xFD5F6, size: 0x8, addend: 0x0, symName: __ZN4game6Random14number_betweenEii, symObjAddr: 0x284, symBinAddr: 0x10002845C, symSize: 0x90 }
  - { offset: 0xFD668, size: 0x8, addend: 0x0, symName: __ZNSt13random_deviceclEv, symObjAddr: 0x268, symBinAddr: 0x100028440, symSize: 0x1C }
  - { offset: 0xFD6B6, size: 0x8, addend: 0x0, symName: __ZNSt13random_deviceD1Ev, symObjAddr: 0x248, symBinAddr: 0x100028420, symSize: 0x20 }
  - { offset: 0xFD6F6, size: 0x8, addend: 0x0, symName: __ZNSt13random_deviceC1Ev, symObjAddr: 0x1C4, symBinAddr: 0x10002839C, symSize: 0x84 }
  - { offset: 0x10E79F, size: 0x8, addend: 0x0, symName: __ZNSt15_Sp_counted_ptrIPN4game9Tail_FillELN9__gnu_cxx12_Lock_policyE2EE14_M_get_deleterERKSt9type_info, symObjAddr: 0x1DF0, symBinAddr: 0x1000290E0, symSize: 0x18 }
  - { offset: 0x10E7D2, size: 0x8, addend: 0x0, symName: __ZNSt15_Sp_counted_ptrIPN4game9Tail_FillELN9__gnu_cxx12_Lock_policyE2EE10_M_destroyEv, symObjAddr: 0x1DC8, symBinAddr: 0x1000290B8, symSize: 0x28 }
  - { offset: 0x10E7FC, size: 0x8, addend: 0x0, symName: __ZNSt15_Sp_counted_ptrIPN4game9Tail_FillELN9__gnu_cxx12_Lock_policyE2EE10_M_disposeEv, symObjAddr: 0x1D90, symBinAddr: 0x100029080, symSize: 0x38 }
  - { offset: 0x10E84E, size: 0x8, addend: 0x0, symName: __ZNSt15_Sp_counted_ptrIPN4game9Tail_FillELN9__gnu_cxx12_Lock_policyE2EED0Ev, symObjAddr: 0x1D68, symBinAddr: 0x100029058, symSize: 0x28 }
  - { offset: 0x10E878, size: 0x8, addend: 0x0, symName: __ZNSt15_Sp_counted_ptrIPN4game9Tail_FillELN9__gnu_cxx12_Lock_policyE2EED1Ev, symObjAddr: 0x1D34, symBinAddr: 0x100029024, symSize: 0x34 }
  - { offset: 0x10E8C6, size: 0x8, addend: 0x0, symName: __ZNSt15_Sp_counted_ptrIPN4game9Tail_FillELN9__gnu_cxx12_Lock_policyE2EEC1ES2_, symObjAddr: 0x1C10, symBinAddr: 0x100028FE0, symSize: 0x44 }
  - { offset: 0x10E926, size: 0x8, addend: 0x0, symName: __ZNSt14__shared_countILN9__gnu_cxx12_Lock_policyE2EEC1IPN4game9Tail_FillEEET_, symObjAddr: 0x1ABC, symBinAddr: 0x100028F40, symSize: 0xA0 }
  - { offset: 0x10E985, size: 0x8, addend: 0x0, symName: __ZN4game9Tail_FillD0Ev, symObjAddr: 0x1A94, symBinAddr: 0x100028F18, symSize: 0x28 }
  - { offset: 0x10E9AF, size: 0x8, addend: 0x0, symName: __ZN4game9Tail_FillD1Ev, symObjAddr: 0x1A60, symBinAddr: 0x100028EE4, symSize: 0x34 }
  - { offset: 0x10E9D5, size: 0x8, addend: 0x0, symName: __ZNSt12__shared_ptrIN4game9Tail_FillELN9__gnu_cxx12_Lock_policyE2EE31_M_enable_shared_from_this_withIS1_S1_EENSt9enable_ifIXntsrNS4_15__has_esft_baseIT0_vEE5valueEvE4typeEPT_, symObjAddr: 0x17C4, symBinAddr: 0x100028ECC, symSize: 0x18 }
  - { offset: 0x10EA50, size: 0x8, addend: 0x0, symName: __ZNSt14__shared_countILN9__gnu_cxx12_Lock_policyE2EEC1IPN4game9Tail_FillEEET_St17integral_constantIbLb0EE, symObjAddr: 0x1798, symBinAddr: 0x100028EA0, symSize: 0x2C }
  - { offset: 0x10EAC2, size: 0x8, addend: 0x0, symName: __ZNSt12__shared_ptrIN6engine6SpriteELN9__gnu_cxx12_Lock_policyE2EEC2IN4game9Tail_FillEvEERKS_IT_LS3_2EE, symObjAddr: 0x13E0, symBinAddr: 0x100028E58, symSize: 0x48 }
  - { offset: 0x10EB2B, size: 0x8, addend: 0x0, symName: __ZNSt12__shared_ptrIN4game9Tail_FillELN9__gnu_cxx12_Lock_policyE2EEC2IS1_vEEPT_, symObjAddr: 0x139C, symBinAddr: 0x100028E14, symSize: 0x44 }
  - { offset: 0x10EB94, size: 0x8, addend: 0x0, symName: __ZNSt10shared_ptrIN6engine6SpriteEEC1IN4game9Tail_FillEvEERKS_IT_E, symObjAddr: 0xD38, symBinAddr: 0x100028DEC, symSize: 0x28 }
  - { offset: 0x10EBFC, size: 0x8, addend: 0x0, symName: __ZNSt10shared_ptrIN4game9Tail_FillEEC1IS1_vEEPT_, symObjAddr: 0xD10, symBinAddr: 0x100028DC4, symSize: 0x28 }
  - { offset: 0x10EC30, size: 0x8, addend: 0x0, symName: __ZN4game9Tail_Fill4makeEffffNSt7__cxx1112basic_stringIcSt11char_traitsIcESaIcEEES6_, symObjAddr: 0x710, symBinAddr: 0x100028C38, symSize: 0x18C }
  - { offset: 0x10ECFD, size: 0x8, addend: 0x0, symName: __ZNSt10shared_ptrIN4game9Tail_FillEED1Ev, symObjAddr: 0x6AC, symBinAddr: 0x100028C18, symSize: 0x20 }
  - { offset: 0x10ED47, size: 0x8, addend: 0x0, symName: __ZNSt12__shared_ptrIN4game9Tail_FillELN9__gnu_cxx12_Lock_policyE2EED2Ev, symObjAddr: 0x688, symBinAddr: 0x100028BF4, symSize: 0x24 }
  - { offset: 0x10EDD5, size: 0x8, addend: 0x0, symName: __ZN4game9Tail_FillC1EffffNSt7__cxx1112basic_stringIcSt11char_traitsIcESaIcEEES6_, symObjAddr: 0x504, symBinAddr: 0x100028B30, symSize: 0xC4 }
  - { offset: 0x10EE3E, size: 0x8, addend: 0x0, symName: __ZL18__gthread_active_pv, symObjAddr: 0x138, symBinAddr: 0x100028B28, symSize: 0x8 }
  - { offset: 0x12D06E, size: 0x8, addend: 0x0, symName: __ZN9constantsL8gResPathE, symObjAddr: 0x6F08, symBinAddr: 0x100054120, symSize: 0x0 }
  - { offset: 0x12D07E, size: 0x8, addend: 0x0, symName: __ZN9constantsL6bg_strE, symObjAddr: 0x104C58, symBinAddr: 0x1000554C0, symSize: 0x0 }
  - { offset: 0x12D08E, size: 0x8, addend: 0x0, symName: __ZN9constantsL8ship_strE, symObjAddr: 0x104C78, symBinAddr: 0x1000554E0, symSize: 0x0 }
  - { offset: 0x12D09E, size: 0x8, addend: 0x0, symName: __ZN9constantsL6sign_0E, symObjAddr: 0x104C98, symBinAddr: 0x100055500, symSize: 0x0 }
  - { offset: 0x12D0AE, size: 0x8, addend: 0x0, symName: __ZN9constantsL6sign_1E, symObjAddr: 0x104CB8, symBinAddr: 0x100055520, symSize: 0x0 }
  - { offset: 0x12D0BE, size: 0x8, addend: 0x0, symName: __ZN9constantsL6sign_2E, symObjAddr: 0x104CD8, symBinAddr: 0x100055540, symSize: 0x0 }
  - { offset: 0x12D0CE, size: 0x8, addend: 0x0, symName: __ZN9constantsL6sign_3E, symObjAddr: 0x104CF8, symBinAddr: 0x100055560, symSize: 0x0 }
  - { offset: 0x12D0DE, size: 0x8, addend: 0x0, symName: __ZN9constantsL6sign_4E, symObjAddr: 0x104D18, symBinAddr: 0x100055580, symSize: 0x0 }
  - { offset: 0x12D0EE, size: 0x8, addend: 0x0, symName: __ZN9constantsL6sign_5E, symObjAddr: 0x104D38, symBinAddr: 0x1000555A0, symSize: 0x0 }
  - { offset: 0x12D0FE, size: 0x8, addend: 0x0, symName: __ZN9constantsL6sign_6E, symObjAddr: 0x104D58, symBinAddr: 0x1000555C0, symSize: 0x0 }
  - { offset: 0x12D10E, size: 0x8, addend: 0x0, symName: __ZN9constantsL6sign_7E, symObjAddr: 0x104D78, symBinAddr: 0x1000555E0, symSize: 0x0 }
  - { offset: 0x12D11E, size: 0x8, addend: 0x0, symName: __ZN9constantsL6sign_8E, symObjAddr: 0x104D98, symBinAddr: 0x100055600, symSize: 0x0 }
  - { offset: 0x12D12E, size: 0x8, addend: 0x0, symName: __ZN9constantsL6sign_9E, symObjAddr: 0x104DB8, symBinAddr: 0x100055620, symSize: 0x0 }
  - { offset: 0x12D13E, size: 0x8, addend: 0x0, symName: __ZN9constantsL10sample_strE, symObjAddr: 0x104DD8, symBinAddr: 0x100055640, symSize: 0x0 }
  - { offset: 0x12D14E, size: 0x8, addend: 0x0, symName: __ZN9constantsL13standard_fontE, symObjAddr: 0x104DF8, symBinAddr: 0x100055660, symSize: 0x0 }
  - { offset: 0x12DB98, size: 0x8, addend: 0x0, symName: __ZN11constants_wL8gResPathE, symObjAddr: 0x6F28, symBinAddr: 0x100054140, symSize: 0x0 }
  - { offset: 0x12DBA8, size: 0x8, addend: 0x0, symName: __ZN11constants_wL6bg_strE, symObjAddr: 0x104E18, symBinAddr: 0x100055680, symSize: 0x0 }
  - { offset: 0x12DBB8, size: 0x8, addend: 0x0, symName: __ZN11constants_wL8ship_strE, symObjAddr: 0x104E38, symBinAddr: 0x1000556A0, symSize: 0x0 }
  - { offset: 0x12DBC8, size: 0x8, addend: 0x0, symName: __ZN11constants_wL6sign_0E, symObjAddr: 0x104E58, symBinAddr: 0x1000556C0, symSize: 0x0 }
  - { offset: 0x12DBD8, size: 0x8, addend: 0x0, symName: __ZN11constants_wL6sign_1E, symObjAddr: 0x104E78, symBinAddr: 0x1000556E0, symSize: 0x0 }
  - { offset: 0x12DBE8, size: 0x8, addend: 0x0, symName: __ZN11constants_wL6sign_2E, symObjAddr: 0x104E98, symBinAddr: 0x100055700, symSize: 0x0 }
  - { offset: 0x12DBF8, size: 0x8, addend: 0x0, symName: __ZN11constants_wL6sign_3E, symObjAddr: 0x104EB8, symBinAddr: 0x100055720, symSize: 0x0 }
  - { offset: 0x12DC08, size: 0x8, addend: 0x0, symName: __ZN11constants_wL6sign_4E, symObjAddr: 0x104ED8, symBinAddr: 0x100055740, symSize: 0x0 }
  - { offset: 0x12DC18, size: 0x8, addend: 0x0, symName: __ZN11constants_wL6sign_5E, symObjAddr: 0x104EF8, symBinAddr: 0x100055760, symSize: 0x0 }
  - { offset: 0x12DC28, size: 0x8, addend: 0x0, symName: __ZN11constants_wL6sign_6E, symObjAddr: 0x104F18, symBinAddr: 0x100055780, symSize: 0x0 }
  - { offset: 0x12DC38, size: 0x8, addend: 0x0, symName: __ZN11constants_wL6sign_7E, symObjAddr: 0x104F38, symBinAddr: 0x1000557A0, symSize: 0x0 }
  - { offset: 0x12DC48, size: 0x8, addend: 0x0, symName: __ZN11constants_wL6sign_8E, symObjAddr: 0x104F58, symBinAddr: 0x1000557C0, symSize: 0x0 }
  - { offset: 0x12DC58, size: 0x8, addend: 0x0, symName: __ZN11constants_wL6sign_9E, symObjAddr: 0x104F78, symBinAddr: 0x1000557E0, symSize: 0x0 }
  - { offset: 0x12DC68, size: 0x8, addend: 0x0, symName: __ZN11constants_wL10sample_strE, symObjAddr: 0x104F98, symBinAddr: 0x100055800, symSize: 0x0 }
  - { offset: 0x12DC78, size: 0x8, addend: 0x0, symName: __ZN11constants_wL10player_strE, symObjAddr: 0x104FB8, symBinAddr: 0x100055820, symSize: 0x0 }
  - { offset: 0x12DC88, size: 0x8, addend: 0x0, symName: __ZN11constants_wL7orb_pngE, symObjAddr: 0x104FD8, symBinAddr: 0x100055840, symSize: 0x0 }
  - { offset: 0x12DC98, size: 0x8, addend: 0x0, symName: __ZN11constants_wL7head_upE, symObjAddr: 0x104FF8, symBinAddr: 0x100055860, symSize: 0x0 }
  - { offset: 0x12DCA8, size: 0x8, addend: 0x0, symName: __ZN11constants_wL9head_downE, symObjAddr: 0x105018, symBinAddr: 0x100055880, symSize: 0x0 }
  - { offset: 0x12DCB8, size: 0x8, addend: 0x0, symName: __ZN11constants_wL9head_leftE, symObjAddr: 0x105038, symBinAddr: 0x1000558A0, symSize: 0x0 }
  - { offset: 0x12DCC8, size: 0x8, addend: 0x0, symName: __ZN11constants_wL10head_rightE, symObjAddr: 0x105058, symBinAddr: 0x1000558C0, symSize: 0x0 }
  - { offset: 0x12DCD8, size: 0x8, addend: 0x0, symName: __ZN11constants_wL8tail_verE, symObjAddr: 0x105078, symBinAddr: 0x1000558E0, symSize: 0x0 }
  - { offset: 0x12DCE8, size: 0x8, addend: 0x0, symName: __ZN11constants_wL8tail_horE, symObjAddr: 0x105098, symBinAddr: 0x100055900, symSize: 0x0 }
  - { offset: 0x12DCF8, size: 0x8, addend: 0x0, symName: __ZStL8__ioinit, symObjAddr: 0x1050B8, symBinAddr: 0x100055920, symSize: 0x0 }
  - { offset: 0x12E193, size: 0x8, addend: 0x0, symName: __GLOBAL__sub_I_tail.cpp, symObjAddr: 0x79F8, symBinAddr: 0x10002BD94, symSize: 0x14 }
  - { offset: 0x12E1AF, size: 0x8, addend: 0x0, symName: __ZNSt15_Sp_counted_ptrIPN4game4TailELN9__gnu_cxx12_Lock_policyE2EE14_M_get_deleterERKSt9type_info, symObjAddr: 0x66B8, symBinAddr: 0x10002B4C4, symSize: 0x18 }
  - { offset: 0x12E1E2, size: 0x8, addend: 0x0, symName: __ZNSt15_Sp_counted_ptrIPN4game4TailELN9__gnu_cxx12_Lock_policyE2EE10_M_destroyEv, symObjAddr: 0x6690, symBinAddr: 0x10002B49C, symSize: 0x28 }
  - { offset: 0x12E20C, size: 0x8, addend: 0x0, symName: __ZNSt15_Sp_counted_ptrIPN4game4TailELN9__gnu_cxx12_Lock_policyE2EE10_M_disposeEv, symObjAddr: 0x6658, symBinAddr: 0x10002B464, symSize: 0x38 }
  - { offset: 0x12E232, size: 0x8, addend: 0x0, symName: __Z41__static_initialization_and_destruction_0v, symObjAddr: 0x7140, symBinAddr: 0x10002B4DC, symSize: 0x8B8 }
  - { offset: 0x12E2DA, size: 0x8, addend: 0x0, symName: __ZNSt15_Sp_counted_ptrIPN4game4TailELN9__gnu_cxx12_Lock_policyE2EED0Ev, symObjAddr: 0x6630, symBinAddr: 0x10002B43C, symSize: 0x28 }
  - { offset: 0x12E304, size: 0x8, addend: 0x0, symName: __ZNSt15_Sp_counted_ptrIPN4game4TailELN9__gnu_cxx12_Lock_policyE2EED1Ev, symObjAddr: 0x65FC, symBinAddr: 0x10002B408, symSize: 0x34 }
  - { offset: 0x12E32D, size: 0x8, addend: 0x0, symName: __ZSt8_DestroyISt10shared_ptrIN4game8LocationEEEvPT_, symObjAddr: 0x5F80, symBinAddr: 0x10002B3E8, symSize: 0x20 }
  - { offset: 0x12E35F, size: 0x8, addend: 0x0, symName: __ZSt11__addressofISt10shared_ptrIN4game8LocationEEEPT_RS4_, symObjAddr: 0x5F6C, symBinAddr: 0x10002B3D4, symSize: 0x14 }
  - { offset: 0x12E395, size: 0x8, addend: 0x0, symName: __ZNSt15__new_allocatorISt10shared_ptrIN4game8LocationEEE10deallocateEPS3_m, symObjAddr: 0x5E70, symBinAddr: 0x10002B3A4, symSize: 0x30 }
  - { offset: 0x12E3DB, size: 0x8, addend: 0x0, symName: __ZNSt12_Destroy_auxILb0EE9__destroyIPSt10shared_ptrIN4game8LocationEEEEvT_S7_, symObjAddr: 0x5BF8, symBinAddr: 0x10002B358, symSize: 0x4C }
  - { offset: 0x12E449, size: 0x8, addend: 0x0, symName: __ZNSt15_Sp_counted_ptrIPN4game4TailELN9__gnu_cxx12_Lock_policyE2EEC1ES2_, symObjAddr: 0x5BB4, symBinAddr: 0x10002B314, symSize: 0x44 }
  - { offset: 0x12E4A4, size: 0x8, addend: 0x0, symName: __ZSt8_DestroyIPSt10shared_ptrIN4game8LocationEEEvT_S5_, symObjAddr: 0x5780, symBinAddr: 0x10002B2D0, symSize: 0x44 }
  - { offset: 0x12E534, size: 0x8, addend: 0x0, symName: __ZNSt14__shared_countILN9__gnu_cxx12_Lock_policyE2EEC1IPN4game4TailEEET_, symObjAddr: 0x56E0, symBinAddr: 0x10002B230, symSize: 0xA0 }
  - { offset: 0x12E586, size: 0x8, addend: 0x0, symName: __ZNSt15_Deque_iteratorISt10shared_ptrIN4game8LocationEERS3_PS3_EC1Ev, symObjAddr: 0x56AC, symBinAddr: 0x10002B1FC, symSize: 0x34 }
  - { offset: 0x12E632, size: 0x8, addend: 0x0, symName: __ZNSt5dequeISt10shared_ptrIN4game8LocationEESaIS3_EE14_S_buffer_sizeEv, symObjAddr: 0x5048, symBinAddr: 0x10002B1E4, symSize: 0x18 }
  - { offset: 0x12E64A, size: 0x8, addend: 0x0, symName: __ZSt10destroy_atISt10shared_ptrIN4game8LocationEEEvPT_, symObjAddr: 0x4FE8, symBinAddr: 0x10002B1C4, symSize: 0x20 }
  - { offset: 0x12E680, size: 0x8, addend: 0x0, symName: __ZNKSt12__shared_ptrIN4game8LocationELN9__gnu_cxx12_Lock_policyE2EE3getEv, symObjAddr: 0x4FD0, symBinAddr: 0x10002B1AC, symSize: 0x18 }
  - { offset: 0x12E6AA, size: 0x8, addend: 0x0, symName: __ZNKSt12__shared_ptrIN4game9Tail_FillELN9__gnu_cxx12_Lock_policyE2EE3getEv, symObjAddr: 0x4FB8, symBinAddr: 0x10002B194, symSize: 0x18 }
  - { offset: 0x12E6D4, size: 0x8, addend: 0x0, symName: __ZNSt12__shared_ptrIN4game4TailELN9__gnu_cxx12_Lock_policyE2EE31_M_enable_shared_from_this_withIS1_S1_EENSt9enable_ifIXntsrNS4_15__has_esft_baseIT0_vEE5valueEvE4typeEPT_, symObjAddr: 0x4F88, symBinAddr: 0x10002B17C, symSize: 0x18 }
  - { offset: 0x12E74F, size: 0x8, addend: 0x0, symName: __ZNSt14__shared_countILN9__gnu_cxx12_Lock_policyE2EEC1IPN4game4TailEEET_St17integral_constantIbLb0EE, symObjAddr: 0x4F5C, symBinAddr: 0x10002B150, symSize: 0x2C }
  - { offset: 0x12E790, size: 0x8, addend: 0x0, symName: __ZNSt11_Deque_baseISt10shared_ptrIN4game8LocationEESaIS3_EE15_M_create_nodesEPPS3_S7_, symObjAddr: 0x4E70, symBinAddr: 0x10002B0C4, symSize: 0x8C }
  - { offset: 0x12E807, size: 0x8, addend: 0x0, symName: __ZNSt11_Deque_baseISt10shared_ptrIN4game8LocationEESaIS3_EE16_Deque_impl_dataC2Ev, symObjAddr: 0x4D64, symBinAddr: 0x10002B084, symSize: 0x40 }
  - { offset: 0x12E843, size: 0x8, addend: 0x0, symName: __ZNSt11_Deque_baseISt10shared_ptrIN4game8LocationEESaIS3_EE18_M_deallocate_nodeEPS3_, symObjAddr: 0x49F4, symBinAddr: 0x10002AFF8, symSize: 0x8C }
  - { offset: 0x12E903, size: 0x8, addend: 0x0, symName: __ZNSt5dequeISt10shared_ptrIN4game8LocationEESaIS3_EE19_M_destroy_data_auxESt15_Deque_iteratorIS3_RS3_PS3_ES9_, symObjAddr: 0x45F8, symBinAddr: 0x10002AEA8, symSize: 0x150 }
  - { offset: 0x12EA7C, size: 0x8, addend: 0x0, symName: __ZNSt15_Deque_iteratorISt10shared_ptrIN4game8LocationEERS3_PS3_EC1ERKS6_, symObjAddr: 0x45A0, symBinAddr: 0x10002AE50, symSize: 0x58 }
  - { offset: 0x12EAAB, size: 0x8, addend: 0x0, symName: __ZNSt5dequeISt10shared_ptrIN4game8LocationEESaIS3_EE16_M_pop_front_auxEv, symObjAddr: 0x44C0, symBinAddr: 0x10002ADC8, symSize: 0x88 }
  - { offset: 0x12EB2F, size: 0x8, addend: 0x0, symName: __ZNKSt15_Deque_iteratorISt10shared_ptrIN4game8LocationEERS3_PS3_EdeEv, symObjAddr: 0x44A8, symBinAddr: 0x10002ADB0, symSize: 0x18 }
  - { offset: 0x12EB59, size: 0x8, addend: 0x0, symName: __ZNKSt19__shared_ptr_accessIN4game8LocationELN9__gnu_cxx12_Lock_policyE2ELb0ELb0EE6_M_getEv, symObjAddr: 0x448C, symBinAddr: 0x10002AD94, symSize: 0x1C }
  - { offset: 0x12EB83, size: 0x8, addend: 0x0, symName: __ZNKSt19__shared_ptr_accessIN4game9Tail_FillELN9__gnu_cxx12_Lock_policyE2ELb0ELb0EE6_M_getEv, symObjAddr: 0x43B8, symBinAddr: 0x10002AD78, symSize: 0x1C }
  - { offset: 0x12EBDE, size: 0x8, addend: 0x0, symName: __ZNSt12__shared_ptrIN6engine6SpriteELN9__gnu_cxx12_Lock_policyE2EEC2IN4game4TailEvEERKS_IT_LS3_2EE, symObjAddr: 0x4354, symBinAddr: 0x10002AD30, symSize: 0x48 }
  - { offset: 0x12EC47, size: 0x8, addend: 0x0, symName: __ZNSt12__shared_ptrIN4game4TailELN9__gnu_cxx12_Lock_policyE2EEC2IS1_vEEPT_, symObjAddr: 0x4310, symBinAddr: 0x10002ACEC, symSize: 0x44 }
  - { offset: 0x12EC99, size: 0x8, addend: 0x0, symName: __ZNSt12__shared_ptrIN4game9Tail_FillELN9__gnu_cxx12_Lock_policyE2EEC2Ev, symObjAddr: 0x42C8, symBinAddr: 0x10002ACC0, symSize: 0x2C }
  - { offset: 0x12ECD9, size: 0x8, addend: 0x0, symName: __ZNSt12__shared_ptrIN4game4TailELN9__gnu_cxx12_Lock_policyE2EEC2Ev, symObjAddr: 0x4270, symBinAddr: 0x10002AC94, symSize: 0x2C }
  - { offset: 0x12ECFF, size: 0x8, addend: 0x0, symName: __ZNSt11_Deque_baseISt10shared_ptrIN4game8LocationEESaIS3_EE16_M_destroy_nodesEPPS3_S7_, symObjAddr: 0x4184, symBinAddr: 0x10002AC34, symSize: 0x60 }
  - { offset: 0x12ED6F, size: 0x8, addend: 0x0, symName: __ZNSt11_Deque_baseISt10shared_ptrIN4game8LocationEESaIS3_EE17_M_initialize_mapEm, symObjAddr: 0x3FF8, symBinAddr: 0x10002AAA8, symSize: 0x18C }
  - { offset: 0x12EE17, size: 0x8, addend: 0x0, symName: __ZNSt11_Deque_baseISt10shared_ptrIN4game8LocationEESaIS3_EE11_Deque_implC1Ev, symObjAddr: 0x3FC0, symBinAddr: 0x10002AA70, symSize: 0x38 }
  - { offset: 0x12EE84, size: 0x8, addend: 0x0, symName: __ZNSt5dequeISt10shared_ptrIN4game8LocationEESaIS3_EE15_M_destroy_dataESt15_Deque_iteratorIS3_RS3_PS3_ES9_RKS4_, symObjAddr: 0x3AA4, symBinAddr: 0x10002AA1C, symSize: 0x54 }
  - { offset: 0x12EEDF, size: 0x8, addend: 0x0, symName: __ZNSt11_Deque_baseISt10shared_ptrIN4game8LocationEESaIS3_EE19_M_get_Tp_allocatorEv, symObjAddr: 0x3A90, symBinAddr: 0x10002AA08, symSize: 0x14 }
  - { offset: 0x12EF09, size: 0x8, addend: 0x0, symName: __ZNSt5dequeISt10shared_ptrIN4game8LocationEESaIS3_EE3endEv, symObjAddr: 0x3A58, symBinAddr: 0x10002A9D0, symSize: 0x38 }
  - { offset: 0x12EF33, size: 0x8, addend: 0x0, symName: __ZNSt5dequeISt10shared_ptrIN4game8LocationEESaIS3_EE5beginEv, symObjAddr: 0x3A20, symBinAddr: 0x10002A998, symSize: 0x38 }
  - { offset: 0x12EF5D, size: 0x8, addend: 0x0, symName: __ZNKSt12__shared_ptrIN4game4TailELN9__gnu_cxx12_Lock_policyE2EEcvbEv, symObjAddr: 0x3750, symBinAddr: 0x10002A974, symSize: 0x24 }
  - { offset: 0x12EF87, size: 0x8, addend: 0x0, symName: __ZNSt5dequeISt10shared_ptrIN4game8LocationEESaIS3_EE9pop_frontEv, symObjAddr: 0x36D4, symBinAddr: 0x10002A8F8, symSize: 0x7C }
  - { offset: 0x12EFDE, size: 0x8, addend: 0x0, symName: __ZNSt5dequeISt10shared_ptrIN4game8LocationEESaIS3_EE5frontEv, symObjAddr: 0x3660, symBinAddr: 0x10002A8CC, symSize: 0x2C }
  - { offset: 0x12F008, size: 0x8, addend: 0x0, symName: __ZNKSt19__shared_ptr_accessIN4game8LocationELN9__gnu_cxx12_Lock_policyE2ELb0ELb0EEptEv, symObjAddr: 0x3644, symBinAddr: 0x10002A8B0, symSize: 0x1C }
  - { offset: 0x12F051, size: 0x8, addend: 0x0, symName: __ZNSt10shared_ptrIN4game4TailEEC1EDn, symObjAddr: 0x3620, symBinAddr: 0x10002A88C, symSize: 0x24 }
  - { offset: 0x12F080, size: 0x8, addend: 0x0, symName: __ZNKSt19__shared_ptr_accessIN4game9Tail_FillELN9__gnu_cxx12_Lock_policyE2ELb0ELb0EEptEv, symObjAddr: 0x35A0, symBinAddr: 0x10002A870, symSize: 0x1C }
  - { offset: 0x12F0DB, size: 0x8, addend: 0x0, symName: __ZNSt10shared_ptrIN6engine6SpriteEEC1IN4game4TailEvEERKS_IT_E, symObjAddr: 0x355C, symBinAddr: 0x10002A848, symSize: 0x28 }
  - { offset: 0x12F143, size: 0x8, addend: 0x0, symName: __ZNSt10shared_ptrIN4game4TailEEC1IS1_vEEPT_, symObjAddr: 0x3534, symBinAddr: 0x10002A820, symSize: 0x28 }
  - { offset: 0x12F195, size: 0x8, addend: 0x0, symName: __ZNSt10shared_ptrIN4game9Tail_FillEEC1Ev, symObjAddr: 0x34F8, symBinAddr: 0x10002A800, symSize: 0x20 }
  - { offset: 0x12F1D5, size: 0x8, addend: 0x0, symName: __ZNSt10shared_ptrIN4game4TailEEC1Ev, symObjAddr: 0x34B8, symBinAddr: 0x10002A7E0, symSize: 0x20 }
  - { offset: 0x12F21F, size: 0x8, addend: 0x0, symName: __ZNSt11_Deque_baseISt10shared_ptrIN4game8LocationEESaIS3_EED2Ev, symObjAddr: 0x344C, symBinAddr: 0x10002A774, symSize: 0x6C }
  - { offset: 0x12F25F, size: 0x8, addend: 0x0, symName: __ZNSt11_Deque_baseISt10shared_ptrIN4game8LocationEESaIS3_EEC2Ev, symObjAddr: 0x3404, symBinAddr: 0x10002A72C, symSize: 0x48 }
  - { offset: 0x12F2AD, size: 0x8, addend: 0x0, symName: __ZNSt11_Deque_baseISt10shared_ptrIN4game8LocationEESaIS3_EE11_Deque_implD1Ev, symObjAddr: 0x33E4, symBinAddr: 0x10002A70C, symSize: 0x20 }
  - { offset: 0x12F2F7, size: 0x8, addend: 0x0, symName: __ZNSt14__shared_countILN9__gnu_cxx12_Lock_policyE2EEaSERKS2_, symObjAddr: 0x31E4, symBinAddr: 0x10002A694, symSize: 0x78 }
  - { offset: 0x12F367, size: 0x8, addend: 0x0, symName: __ZNSt5dequeISt10shared_ptrIN4game8LocationEESaIS3_EED1Ev, symObjAddr: 0x3048, symBinAddr: 0x10002A62C, symSize: 0x68 }
  - { offset: 0x12F38E, size: 0x8, addend: 0x0, symName: __ZNK4game4Tail19reached_coordinatesEffff, symObjAddr: 0x2B50, symBinAddr: 0x10002A4F4, symSize: 0x138 }
  - { offset: 0x12F4BA, size: 0x8, addend: 0x0, symName: __ZN4game4Tail4moveEff, symObjAddr: 0x2884, symBinAddr: 0x10002A228, symSize: 0x2CC }
  - { offset: 0x12F534, size: 0x8, addend: 0x0, symName: __ZN4game4Tail12get_locationEv, symObjAddr: 0x27D8, symBinAddr: 0x10002A1EC, symSize: 0x3C }
  - { offset: 0x12F55E, size: 0x8, addend: 0x0, symName: __ZN4game4Tail9pop_queueEv, symObjAddr: 0x2798, symBinAddr: 0x10002A1AC, symSize: 0x40 }
  - { offset: 0x12F598, size: 0x8, addend: 0x0, symName: __ZN4game4Tail19move_towards_targetESt10shared_ptrINS_8LocationEE, symObjAddr: 0x2604, symBinAddr: 0x10002A088, symSize: 0x124 }
  - { offset: 0x12F643, size: 0x8, addend: 0x0, symName: __ZN4game4Tail6updateESt6vectorISt10shared_ptrIN6engine6SpriteEESaIS5_EE, symObjAddr: 0x2548, symBinAddr: 0x100029FCC, symSize: 0xBC }
  - { offset: 0x12F67A, size: 0x8, addend: 0x0, symName: __ZN4game4Tail4makeESt10shared_ptrIS0_ENSt7__cxx1112basic_stringIcSt11char_traitsIcESaIcEEES8_, symObjAddr: 0x1F78, symBinAddr: 0x1000299FC, symSize: 0x5D0 }
  - { offset: 0x12F73C, size: 0x8, addend: 0x0, symName: __ZN4game4Tail4makeESt10shared_ptrINS_6PlayerEENSt7__cxx1112basic_stringIcSt11char_traitsIcESaIcEEES9_, symObjAddr: 0x1B3C, symBinAddr: 0x1000295C0, symSize: 0x43C }
  - { offset: 0x12F7F1, size: 0x8, addend: 0x0, symName: __ZNSt10shared_ptrIN4game9Tail_FillEEaSERKS2_, symObjAddr: 0x1B14, symBinAddr: 0x100029598, symSize: 0x28 }
  - { offset: 0x12F824, size: 0x8, addend: 0x0, symName: __ZNSt12__shared_ptrIN4game9Tail_FillELN9__gnu_cxx12_Lock_policyE2EEaSERKS4_, symObjAddr: 0x1AD4, symBinAddr: 0x100029558, symSize: 0x40 }
  - { offset: 0x12F8BF, size: 0x8, addend: 0x0, symName: __ZN4game4TailC1EffffNSt7__cxx1112basic_stringIcSt11char_traitsIcESaIcEEES6_, symObjAddr: 0x1944, symBinAddr: 0x100029454, symSize: 0x104 }
  - { offset: 0x12F928, size: 0x8, addend: 0x0, symName: __ZN4game4TailC2EffffNSt7__cxx1112basic_stringIcSt11char_traitsIcESaIcEEES6_, symObjAddr: 0x1840, symBinAddr: 0x100029350, symSize: 0x104 }
  - { offset: 0x12F9A7, size: 0x8, addend: 0x0, symName: __ZNSt5dequeISt10shared_ptrIN4game8LocationEESaIS3_EEC1Ev, symObjAddr: 0x1820, symBinAddr: 0x100029330, symSize: 0x20 }
  - { offset: 0x12F9CD, size: 0x8, addend: 0x0, symName: __ZN4game4Tail10set_targetESt10shared_ptrIN6engine6SpriteEE, symObjAddr: 0x17BC, symBinAddr: 0x100029304, symSize: 0x2C }
  - { offset: 0x12FA08, size: 0x8, addend: 0x0, symName: __ZNSt10shared_ptrIN6engine6SpriteEEaSERKS2_, symObjAddr: 0x1794, symBinAddr: 0x1000292DC, symSize: 0x28 }
  - { offset: 0x12FA3B, size: 0x8, addend: 0x0, symName: __ZNSt12__shared_ptrIN6engine6SpriteELN9__gnu_cxx12_Lock_policyE2EEaSERKS4_, symObjAddr: 0x1754, symBinAddr: 0x10002929C, symSize: 0x40 }
  - { offset: 0x12FA6E, size: 0x8, addend: 0x0, symName: __ZNSt10shared_ptrIN4game4TailEEaSERKS2_, symObjAddr: 0x172C, symBinAddr: 0x100029274, symSize: 0x28 }
  - { offset: 0x12FAA1, size: 0x8, addend: 0x0, symName: __ZNSt12__shared_ptrIN4game4TailELN9__gnu_cxx12_Lock_policyE2EEaSERKS4_, symObjAddr: 0x16EC, symBinAddr: 0x100029234, symSize: 0x40 }
  - { offset: 0x12FAD4, size: 0x8, addend: 0x0, symName: __ZN4game4Tail13get_directionEv, symObjAddr: 0x16D4, symBinAddr: 0x10002921C, symSize: 0x18 }
  - { offset: 0x12FAFE, size: 0x8, addend: 0x0, symName: __ZN4game4Tail17get_location_safeEv, symObjAddr: 0x16A8, symBinAddr: 0x1000291F0, symSize: 0x2C }
  - { offset: 0x12FB4C, size: 0x8, addend: 0x0, symName: __ZN4game4TailD0Ev, symObjAddr: 0x15CC, symBinAddr: 0x1000291C8, symSize: 0x28 }
  - { offset: 0x12FB76, size: 0x8, addend: 0x0, symName: __ZN4game4TailD1Ev, symObjAddr: 0x156C, symBinAddr: 0x100029168, symSize: 0x60 }
  - { offset: 0x12FBA7, size: 0x8, addend: 0x0, symName: __ZN4game6Player13get_directionEv, symObjAddr: 0x1458, symBinAddr: 0x100029150, symSize: 0x18 }
  - { offset: 0x12FBD1, size: 0x8, addend: 0x0, symName: __ZNK4game8Location13get_directionEv, symObjAddr: 0x6AC, symBinAddr: 0x100029138, symSize: 0x18 }
  - { offset: 0x12FBFB, size: 0x8, addend: 0x0, symName: __ZNK4game8Location5get_yEv, symObjAddr: 0x690, symBinAddr: 0x10002911C, symSize: 0x1C }
  - { offset: 0x12FC25, size: 0x8, addend: 0x0, symName: __ZNK4game8Location5get_xEv, symObjAddr: 0x674, symBinAddr: 0x100029100, symSize: 0x1C }
  - { offset: 0x12FC9F, size: 0x8, addend: 0x0, symName: __ZL18__gthread_active_pv, symObjAddr: 0x224, symBinAddr: 0x1000290F8, symSize: 0x8 }
  - { offset: 0x12FCD2, size: 0x8, addend: 0x0, symName: ___udivti3, symObjAddr: 0x0, symBinAddr: 0x10002BDC0, symSize: 0x35C }
  - { offset: 0x12FE22, size: 0x8, addend: 0x0, symName: ___udivti3, symObjAddr: 0x0, symBinAddr: 0x10002BDC0, symSize: 0x35C }
  - { offset: 0x12FE5E, size: 0x8, addend: 0x0, symName: ___udivti3, symObjAddr: 0x0, symBinAddr: 0x10002BDC0, symSize: 0x35C }
  - { offset: 0x13042B, size: 0x8, addend: 0x0, symName: ___umodti3, symObjAddr: 0x0, symBinAddr: 0x10002C120, symSize: 0x33C }
  - { offset: 0x13057B, size: 0x8, addend: 0x0, symName: ___umodti3, symObjAddr: 0x0, symBinAddr: 0x10002C120, symSize: 0x33C }
  - { offset: 0x1305C5, size: 0x8, addend: 0x0, symName: ___umodti3, symObjAddr: 0x0, symBinAddr: 0x10002C120, symSize: 0x33C }
...
